	.file	"assemblytest.cpp"
	.text
	.weak	_ZSt19piecewise_construct
	.section	.rodata._ZSt19piecewise_construct,"aG",@progbits,_ZSt19piecewise_construct,comdat
	.type	_ZSt19piecewise_construct, @gnu_unique_object
	.size	_ZSt19piecewise_construct, 1
_ZSt19piecewise_construct:
	.zero	1
	.section	.text._ZnwmPv,"axG",@progbits,_ZnwmPv,comdat
	.weak	_ZnwmPv
	.type	_ZnwmPv, @function
_ZnwmPv:
.LFB429:
	.cfi_startproc
	endbr64
	pushq	%rbp
	.cfi_def_cfa_offset 16
	.cfi_offset 6, -16
	movq	%rsp, %rbp
	.cfi_def_cfa_register 6
	movq	%rdi, -8(%rbp)
	movq	%rsi, -16(%rbp)
	movq	-16(%rbp), %rax
	popq	%rbp
	.cfi_def_cfa 7, 8
	ret
	.cfi_endproc
.LFE429:
	.size	_ZnwmPv, .-_ZnwmPv
	.section	.text._ZdlPvS_,"axG",@progbits,_ZdlPvS_,comdat
	.weak	_ZdlPvS_
	.type	_ZdlPvS_, @function
_ZdlPvS_:
.LFB431:
	.cfi_startproc
	endbr64
	pushq	%rbp
	.cfi_def_cfa_offset 16
	.cfi_offset 6, -16
	movq	%rsp, %rbp
	.cfi_def_cfa_register 6
	movq	%rdi, -8(%rbp)
	movq	%rsi, -16(%rbp)
	nop
	popq	%rbp
	.cfi_def_cfa 7, 8
	ret
	.cfi_endproc
.LFE431:
	.size	_ZdlPvS_, .-_ZdlPvS_
	.section	.text._ZNKSt4hashIiEclEi,"axG",@progbits,_ZNKSt4hashIiEclEi,comdat
	.align 2
	.weak	_ZNKSt4hashIiEclEi
	.type	_ZNKSt4hashIiEclEi, @function
_ZNKSt4hashIiEclEi:
.LFB1042:
	.cfi_startproc
	endbr64
	pushq	%rbp
	.cfi_def_cfa_offset 16
	.cfi_offset 6, -16
	movq	%rsp, %rbp
	.cfi_def_cfa_register 6
	movq	%rdi, -8(%rbp)
	movl	%esi, -12(%rbp)
	movl	-12(%rbp), %eax
	cltq
	popq	%rbp
	.cfi_def_cfa 7, 8
	ret
	.cfi_endproc
.LFE1042:
	.size	_ZNKSt4hashIiEclEi, .-_ZNKSt4hashIiEclEi
	.section	.text._ZNKSt4hashImEclEm,"axG",@progbits,_ZNKSt4hashImEclEm,comdat
	.align 2
	.weak	_ZNKSt4hashImEclEm
	.type	_ZNKSt4hashImEclEm, @function
_ZNKSt4hashImEclEm:
.LFB1047:
	.cfi_startproc
	endbr64
	pushq	%rbp
	.cfi_def_cfa_offset 16
	.cfi_offset 6, -16
	movq	%rsp, %rbp
	.cfi_def_cfa_register 6
	movq	%rdi, -8(%rbp)
	movq	%rsi, -16(%rbp)
	movq	-16(%rbp), %rax
	popq	%rbp
	.cfi_def_cfa 7, 8
	ret
	.cfi_endproc
.LFE1047:
	.size	_ZNKSt4hashImEclEm, .-_ZNKSt4hashImEclEm
	.section	.text._ZNSt10_Hash_impl4hashEPKvmm,"axG",@progbits,_ZNSt10_Hash_impl4hashEPKvmm,comdat
	.weak	_ZNSt10_Hash_impl4hashEPKvmm
	.type	_ZNSt10_Hash_impl4hashEPKvmm, @function
_ZNSt10_Hash_impl4hashEPKvmm:
.LFB1051:
	.cfi_startproc
	endbr64
	pushq	%rbp
	.cfi_def_cfa_offset 16
	.cfi_offset 6, -16
	movq	%rsp, %rbp
	.cfi_def_cfa_register 6
	subq	$32, %rsp
	movq	%rdi, -8(%rbp)
	movq	%rsi, -16(%rbp)
	movq	%rdx, -24(%rbp)
	movq	-24(%rbp), %rdx
	movq	-16(%rbp), %rcx
	movq	-8(%rbp), %rax
	movq	%rcx, %rsi
	movq	%rax, %rdi
	call	_ZSt11_Hash_bytesPKvmm@PLT
	leave
	.cfi_def_cfa 7, 8
	ret
	.cfi_endproc
.LFE1051:
	.size	_ZNSt10_Hash_impl4hashEPKvmm, .-_ZNSt10_Hash_impl4hashEPKvmm
	.section	.text._ZNSt8__detail15_Hash_node_baseC2Ev,"axG",@progbits,_ZNSt8__detail15_Hash_node_baseC5Ev,comdat
	.align 2
	.weak	_ZNSt8__detail15_Hash_node_baseC2Ev
	.type	_ZNSt8__detail15_Hash_node_baseC2Ev, @function
_ZNSt8__detail15_Hash_node_baseC2Ev:
.LFB1224:
	.cfi_startproc
	endbr64
	pushq	%rbp
	.cfi_def_cfa_offset 16
	.cfi_offset 6, -16
	movq	%rsp, %rbp
	.cfi_def_cfa_register 6
	movq	%rdi, -8(%rbp)
	movq	-8(%rbp), %rax
	movq	$0, (%rax)
	nop
	popq	%rbp
	.cfi_def_cfa 7, 8
	ret
	.cfi_endproc
.LFE1224:
	.size	_ZNSt8__detail15_Hash_node_baseC2Ev, .-_ZNSt8__detail15_Hash_node_baseC2Ev
	.weak	_ZNSt8__detail15_Hash_node_baseC1Ev
	.set	_ZNSt8__detail15_Hash_node_baseC1Ev,_ZNSt8__detail15_Hash_node_baseC2Ev
	.section	.text._ZNKSt8__detail18_Mod_range_hashingclEmm,"axG",@progbits,_ZNKSt8__detail18_Mod_range_hashingclEmm,comdat
	.align 2
	.weak	_ZNKSt8__detail18_Mod_range_hashingclEmm
	.type	_ZNKSt8__detail18_Mod_range_hashingclEmm, @function
_ZNKSt8__detail18_Mod_range_hashingclEmm:
.LFB1250:
	.cfi_startproc
	endbr64
	pushq	%rbp
	.cfi_def_cfa_offset 16
	.cfi_offset 6, -16
	movq	%rsp, %rbp
	.cfi_def_cfa_register 6
	movq	%rdi, -8(%rbp)
	movq	%rsi, -16(%rbp)
	movq	%rdx, -24(%rbp)
	movq	-16(%rbp), %rax
	movl	$0, %edx
	divq	-24(%rbp)
	movq	%rdx, %rax
	popq	%rbp
	.cfi_def_cfa 7, 8
	ret
	.cfi_endproc
.LFE1250:
	.size	_ZNKSt8__detail18_Mod_range_hashingclEmm, .-_ZNKSt8__detail18_Mod_range_hashingclEmm
	.section	.text._ZNSt8__detail20_Prime_rehash_policyC2Ef,"axG",@progbits,_ZNSt8__detail20_Prime_rehash_policyC5Ef,comdat
	.align 2
	.weak	_ZNSt8__detail20_Prime_rehash_policyC2Ef
	.type	_ZNSt8__detail20_Prime_rehash_policyC2Ef, @function
_ZNSt8__detail20_Prime_rehash_policyC2Ef:
.LFB1252:
	.cfi_startproc
	endbr64
	pushq	%rbp
	.cfi_def_cfa_offset 16
	.cfi_offset 6, -16
	movq	%rsp, %rbp
	.cfi_def_cfa_register 6
	movq	%rdi, -8(%rbp)
	movss	%xmm0, -12(%rbp)
	movq	-8(%rbp), %rax
	movss	-12(%rbp), %xmm0
	movss	%xmm0, (%rax)
	movq	-8(%rbp), %rax
	movq	$0, 8(%rax)
	nop
	popq	%rbp
	.cfi_def_cfa 7, 8
	ret
	.cfi_endproc
.LFE1252:
	.size	_ZNSt8__detail20_Prime_rehash_policyC2Ef, .-_ZNSt8__detail20_Prime_rehash_policyC2Ef
	.weak	_ZNSt8__detail20_Prime_rehash_policyC1Ef
	.set	_ZNSt8__detail20_Prime_rehash_policyC1Ef,_ZNSt8__detail20_Prime_rehash_policyC2Ef
	.section	.text._ZNKSt8__detail20_Prime_rehash_policy8_M_stateEv,"axG",@progbits,_ZNKSt8__detail20_Prime_rehash_policy8_M_stateEv,comdat
	.align 2
	.weak	_ZNKSt8__detail20_Prime_rehash_policy8_M_stateEv
	.type	_ZNKSt8__detail20_Prime_rehash_policy8_M_stateEv, @function
_ZNKSt8__detail20_Prime_rehash_policy8_M_stateEv:
.LFB1256:
	.cfi_startproc
	endbr64
	pushq	%rbp
	.cfi_def_cfa_offset 16
	.cfi_offset 6, -16
	movq	%rsp, %rbp
	.cfi_def_cfa_register 6
	movq	%rdi, -8(%rbp)
	movq	-8(%rbp), %rax
	movq	8(%rax), %rax
	popq	%rbp
	.cfi_def_cfa 7, 8
	ret
	.cfi_endproc
.LFE1256:
	.size	_ZNKSt8__detail20_Prime_rehash_policy8_M_stateEv, .-_ZNKSt8__detail20_Prime_rehash_policy8_M_stateEv
	.section	.text._ZNSt8__detail20_Prime_rehash_policy8_M_resetEm,"axG",@progbits,_ZNSt8__detail20_Prime_rehash_policy8_M_resetEm,comdat
	.align 2
	.weak	_ZNSt8__detail20_Prime_rehash_policy8_M_resetEm
	.type	_ZNSt8__detail20_Prime_rehash_policy8_M_resetEm, @function
_ZNSt8__detail20_Prime_rehash_policy8_M_resetEm:
.LFB1258:
	.cfi_startproc
	endbr64
	pushq	%rbp
	.cfi_def_cfa_offset 16
	.cfi_offset 6, -16
	movq	%rsp, %rbp
	.cfi_def_cfa_register 6
	movq	%rdi, -8(%rbp)
	movq	%rsi, -16(%rbp)
	movq	-8(%rbp), %rax
	movq	-16(%rbp), %rdx
	movq	%rdx, 8(%rax)
	nop
	popq	%rbp
	.cfi_def_cfa 7, 8
	ret
	.cfi_endproc
.LFE1258:
	.size	_ZNSt8__detail20_Prime_rehash_policy8_M_resetEm, .-_ZNSt8__detail20_Prime_rehash_policy8_M_resetEm
	.section	.text._ZSt3minImERKT_S2_S2_,"axG",@progbits,_ZSt3minImERKT_S2_S2_,comdat
	.weak	_ZSt3minImERKT_S2_S2_
	.type	_ZSt3minImERKT_S2_S2_, @function
_ZSt3minImERKT_S2_S2_:
.LFB1266:
	.cfi_startproc
	endbr64
	pushq	%rbp
	.cfi_def_cfa_offset 16
	.cfi_offset 6, -16
	movq	%rsp, %rbp
	.cfi_def_cfa_register 6
	movq	%rdi, -8(%rbp)
	movq	%rsi, -16(%rbp)
	movq	-16(%rbp), %rax
	movq	(%rax), %rdx
	movq	-8(%rbp), %rax
	movq	(%rax), %rax
	cmpq	%rax, %rdx
	jnb	.L18
	movq	-16(%rbp), %rax
	jmp	.L19
.L18:
	movq	-8(%rbp), %rax
.L19:
	popq	%rbp
	.cfi_def_cfa 7, 8
	ret
	.cfi_endproc
.LFE1266:
	.size	_ZSt3minImERKT_S2_S2_, .-_ZSt3minImERKT_S2_S2_
	.section	.rodata
	.type	_ZN6__pstl9execution2v1L3seqE, @object
	.size	_ZN6__pstl9execution2v1L3seqE, 1
_ZN6__pstl9execution2v1L3seqE:
	.zero	1
	.type	_ZN6__pstl9execution2v1L3parE, @object
	.size	_ZN6__pstl9execution2v1L3parE, 1
_ZN6__pstl9execution2v1L3parE:
	.zero	1
	.type	_ZN6__pstl9execution2v1L9par_unseqE, @object
	.size	_ZN6__pstl9execution2v1L9par_unseqE, 1
_ZN6__pstl9execution2v1L9par_unseqE:
	.zero	1
	.type	_ZN6__pstl9execution2v1L5unseqE, @object
	.size	_ZN6__pstl9execution2v1L5unseqE, 1
_ZN6__pstl9execution2v1L5unseqE:
	.zero	1
	.section	.text._ZNSt11char_traitsIcE2ltERKcS2_,"axG",@progbits,_ZNSt11char_traitsIcE2ltERKcS2_,comdat
	.weak	_ZNSt11char_traitsIcE2ltERKcS2_
	.type	_ZNSt11char_traitsIcE2ltERKcS2_, @function
_ZNSt11char_traitsIcE2ltERKcS2_:
.LFB2174:
	.cfi_startproc
	endbr64
	pushq	%rbp
	.cfi_def_cfa_offset 16
	.cfi_offset 6, -16
	movq	%rsp, %rbp
	.cfi_def_cfa_register 6
	movq	%rdi, -8(%rbp)
	movq	%rsi, -16(%rbp)
	movq	-8(%rbp), %rax
	movzbl	(%rax), %eax
	movl	%eax, %edx
	movq	-16(%rbp), %rax
	movzbl	(%rax), %eax
	cmpb	%al, %dl
	setb	%al
	popq	%rbp
	.cfi_def_cfa 7, 8
	ret
	.cfi_endproc
.LFE2174:
	.size	_ZNSt11char_traitsIcE2ltERKcS2_, .-_ZNSt11char_traitsIcE2ltERKcS2_
	.section	.text._ZNSt11char_traitsIcE7compareEPKcS2_m,"axG",@progbits,_ZNSt11char_traitsIcE7compareEPKcS2_m,comdat
	.weak	_ZNSt11char_traitsIcE7compareEPKcS2_m
	.type	_ZNSt11char_traitsIcE7compareEPKcS2_m, @function
_ZNSt11char_traitsIcE7compareEPKcS2_m:
.LFB2175:
	.cfi_startproc
	endbr64
	pushq	%rbp
	.cfi_def_cfa_offset 16
	.cfi_offset 6, -16
	movq	%rsp, %rbp
	.cfi_def_cfa_register 6
	subq	$48, %rsp
	movq	%rdi, -24(%rbp)
	movq	%rsi, -32(%rbp)
	movq	%rdx, -40(%rbp)
	cmpq	$0, -40(%rbp)
	jne	.L23
	movl	$0, %eax
	jmp	.L24
.L23:
	movl	$0, %eax
	testb	%al, %al
	je	.L25
	movq	$0, -8(%rbp)
	jmp	.L26
.L29:
	movq	-32(%rbp), %rdx
	movq	-8(%rbp), %rax
	addq	%rax, %rdx
	movq	-24(%rbp), %rcx
	movq	-8(%rbp), %rax
	addq	%rcx, %rax
	movq	%rdx, %rsi
	movq	%rax, %rdi
	call	_ZNSt11char_traitsIcE2ltERKcS2_
	testb	%al, %al
	je	.L27
	movl	$-1, %eax
	jmp	.L24
.L27:
	movq	-24(%rbp), %rdx
	movq	-8(%rbp), %rax
	addq	%rax, %rdx
	movq	-32(%rbp), %rcx
	movq	-8(%rbp), %rax
	addq	%rcx, %rax
	movq	%rdx, %rsi
	movq	%rax, %rdi
	call	_ZNSt11char_traitsIcE2ltERKcS2_
	testb	%al, %al
	je	.L28
	movl	$1, %eax
	jmp	.L24
.L28:
	addq	$1, -8(%rbp)
.L26:
	movq	-8(%rbp), %rax
	cmpq	-40(%rbp), %rax
	jb	.L29
	movl	$0, %eax
	jmp	.L24
.L25:
	movq	-40(%rbp), %rdx
	movq	-32(%rbp), %rcx
	movq	-24(%rbp), %rax
	movq	%rcx, %rsi
	movq	%rax, %rdi
	call	memcmp@PLT
	nop
.L24:
	leave
	.cfi_def_cfa 7, 8
	ret
	.cfi_endproc
.LFE2175:
	.size	_ZNSt11char_traitsIcE7compareEPKcS2_m, .-_ZNSt11char_traitsIcE7compareEPKcS2_m
	.section	.text._ZNSt11char_traitsIcE6lengthEPKc,"axG",@progbits,_ZNSt11char_traitsIcE6lengthEPKc,comdat
	.weak	_ZNSt11char_traitsIcE6lengthEPKc
	.type	_ZNSt11char_traitsIcE6lengthEPKc, @function
_ZNSt11char_traitsIcE6lengthEPKc:
.LFB2177:
	.cfi_startproc
	endbr64
	pushq	%rbp
	.cfi_def_cfa_offset 16
	.cfi_offset 6, -16
	movq	%rsp, %rbp
	.cfi_def_cfa_register 6
	subq	$32, %rsp
	movq	%rdi, -24(%rbp)
	movq	-24(%rbp), %rax
	movq	%rax, -8(%rbp)
	movl	$0, %eax
	testb	%al, %al
	je	.L32
	movq	-24(%rbp), %rax
	movq	%rax, %rdi
	call	_ZN9__gnu_cxx11char_traitsIcE6lengthEPKc
	jmp	.L33
.L32:
	movq	-24(%rbp), %rax
	movq	%rax, %rdi
	call	strlen@PLT
	nop
.L33:
	leave
	.cfi_def_cfa 7, 8
	ret
	.cfi_endproc
.LFE2177:
	.size	_ZNSt11char_traitsIcE6lengthEPKc, .-_ZNSt11char_traitsIcE6lengthEPKc
	.section	.text._ZNKSt4hashINSt7__cxx1112basic_stringIcSt11char_traitsIcESaIcEEEEclERKS5_,"axG",@progbits,_ZNKSt4hashINSt7__cxx1112basic_stringIcSt11char_traitsIcESaIcEEEEclERKS5_,comdat
	.align 2
	.weak	_ZNKSt4hashINSt7__cxx1112basic_stringIcSt11char_traitsIcESaIcEEEEclERKS5_
	.type	_ZNKSt4hashINSt7__cxx1112basic_stringIcSt11char_traitsIcESaIcEEEEclERKS5_, @function
_ZNKSt4hashINSt7__cxx1112basic_stringIcSt11char_traitsIcESaIcEEEEclERKS5_:
.LFB2626:
	.cfi_startproc
	.cfi_personality 0x9b,DW.ref.__gxx_personality_v0
	.cfi_lsda 0x1b,.LLSDA2626
	endbr64
	pushq	%rbp
	.cfi_def_cfa_offset 16
	.cfi_offset 6, -16
	movq	%rsp, %rbp
	.cfi_def_cfa_register 6
	pushq	%rbx
	subq	$24, %rsp
	.cfi_offset 3, -24
	movq	%rdi, -24(%rbp)
	movq	%rsi, -32(%rbp)
	movq	-32(%rbp), %rax
	movq	%rax, %rdi
	call	_ZNKSt7__cxx1112basic_stringIcSt11char_traitsIcESaIcEE6lengthEv@PLT
	movq	%rax, %rbx
	movq	-32(%rbp), %rax
	movq	%rax, %rdi
	call	_ZNKSt7__cxx1112basic_stringIcSt11char_traitsIcESaIcEE4dataEv@PLT
	movq	%rax, %rcx
	movl	$3339675911, %eax
	movq	%rax, %rdx
	movq	%rbx, %rsi
	movq	%rcx, %rdi
	call	_ZNSt10_Hash_impl4hashEPKvmm
	movq	-8(%rbp), %rbx
	leave
	.cfi_def_cfa 7, 8
	ret
	.cfi_endproc
.LFE2626:
	.globl	__gxx_personality_v0
	.section	.gcc_except_table._ZNKSt4hashINSt7__cxx1112basic_stringIcSt11char_traitsIcESaIcEEEEclERKS5_,"aG",@progbits,_ZNKSt4hashINSt7__cxx1112basic_stringIcSt11char_traitsIcESaIcEEEEclERKS5_,comdat
.LLSDA2626:
	.byte	0xff
	.byte	0xff
	.byte	0x1
	.uleb128 .LLSDACSE2626-.LLSDACSB2626
.LLSDACSB2626:
.LLSDACSE2626:
	.section	.text._ZNKSt4hashINSt7__cxx1112basic_stringIcSt11char_traitsIcESaIcEEEEclERKS5_,"axG",@progbits,_ZNKSt4hashINSt7__cxx1112basic_stringIcSt11char_traitsIcESaIcEEEEclERKS5_,comdat
	.size	_ZNKSt4hashINSt7__cxx1112basic_stringIcSt11char_traitsIcESaIcEEEEclERKS5_, .-_ZNKSt4hashINSt7__cxx1112basic_stringIcSt11char_traitsIcESaIcEEEEclERKS5_
	.section	.text._ZStorSt13_Ios_OpenmodeS_,"axG",@progbits,_ZStorSt13_Ios_OpenmodeS_,comdat
	.weak	_ZStorSt13_Ios_OpenmodeS_
	.type	_ZStorSt13_Ios_OpenmodeS_, @function
_ZStorSt13_Ios_OpenmodeS_:
.LFB2782:
	.cfi_startproc
	endbr64
	pushq	%rbp
	.cfi_def_cfa_offset 16
	.cfi_offset 6, -16
	movq	%rsp, %rbp
	.cfi_def_cfa_register 6
	movl	%edi, -4(%rbp)
	movl	%esi, -8(%rbp)
	movl	-4(%rbp), %eax
	orl	-8(%rbp), %eax
	popq	%rbp
	.cfi_def_cfa 7, 8
	ret
	.cfi_endproc
.LFE2782:
	.size	_ZStorSt13_Ios_OpenmodeS_, .-_ZStorSt13_Ios_OpenmodeS_
	.local	_ZStL8__ioinit
	.comm	_ZStL8__ioinit,1,1
	.section	.text._ZNKSt6chrono8durationIlSt5ratioILl1ELl1000000000EEE5countEv,"axG",@progbits,_ZNKSt6chrono8durationIlSt5ratioILl1ELl1000000000EEE5countEv,comdat
	.align 2
	.weak	_ZNKSt6chrono8durationIlSt5ratioILl1ELl1000000000EEE5countEv
	.type	_ZNKSt6chrono8durationIlSt5ratioILl1ELl1000000000EEE5countEv, @function
_ZNKSt6chrono8durationIlSt5ratioILl1ELl1000000000EEE5countEv:
.LFB3574:
	.cfi_startproc
	endbr64
	pushq	%rbp
	.cfi_def_cfa_offset 16
	.cfi_offset 6, -16
	movq	%rsp, %rbp
	.cfi_def_cfa_register 6
	movq	%rdi, -8(%rbp)
	movq	-8(%rbp), %rax
	movq	(%rax), %rax
	popq	%rbp
	.cfi_def_cfa 7, 8
	ret
	.cfi_endproc
.LFE3574:
	.size	_ZNKSt6chrono8durationIlSt5ratioILl1ELl1000000000EEE5countEv, .-_ZNKSt6chrono8durationIlSt5ratioILl1ELl1000000000EEE5countEv
	.section	.text._ZNSt6chrono8durationIlSt5ratioILl1ELl1000000000EEEC1IlvEERKT_,"axG",@progbits,_ZNSt6chrono8durationIlSt5ratioILl1ELl1000000000EEEC1IlvEERKT_,comdat
	.align 2
	.weak	_ZNSt6chrono8durationIlSt5ratioILl1ELl1000000000EEEC1IlvEERKT_
	.type	_ZNSt6chrono8durationIlSt5ratioILl1ELl1000000000EEEC1IlvEERKT_, @function
_ZNSt6chrono8durationIlSt5ratioILl1ELl1000000000EEEC1IlvEERKT_:
.LFB3579:
	.cfi_startproc
	endbr64
	pushq	%rbp
	.cfi_def_cfa_offset 16
	.cfi_offset 6, -16
	movq	%rsp, %rbp
	.cfi_def_cfa_register 6
	movq	%rdi, -8(%rbp)
	movq	%rsi, -16(%rbp)
	movq	-16(%rbp), %rax
	movq	(%rax), %rdx
	movq	-8(%rbp), %rax
	movq	%rdx, (%rax)
	nop
	popq	%rbp
	.cfi_def_cfa 7, 8
	ret
	.cfi_endproc
.LFE3579:
	.size	_ZNSt6chrono8durationIlSt5ratioILl1ELl1000000000EEEC1IlvEERKT_, .-_ZNSt6chrono8durationIlSt5ratioILl1ELl1000000000EEEC1IlvEERKT_
	.section	.text._ZN8trieHash4NodeC2Ev,"axG",@progbits,_ZN8trieHash4NodeC5Ev,comdat
	.align 2
	.weak	_ZN8trieHash4NodeC2Ev
	.type	_ZN8trieHash4NodeC2Ev, @function
_ZN8trieHash4NodeC2Ev:
.LFB3605:
	.cfi_startproc
	endbr64
	pushq	%rbp
	.cfi_def_cfa_offset 16
	.cfi_offset 6, -16
	movq	%rsp, %rbp
	.cfi_def_cfa_register 6
	movq	%rdi, -24(%rbp)
	movq	-24(%rbp), %rax
	movb	$0, (%rax)
	movq	-24(%rbp), %rax
	movb	$0, 1(%rax)
	movq	-24(%rbp), %rax
	movq	$0, 8(%rax)
	movl	$0, -4(%rbp)
	jmp	.L42
.L43:
	movq	-24(%rbp), %rax
	movl	-4(%rbp), %edx
	movslq	%edx, %rdx
	addq	$2, %rdx
	movq	$0, (%rax,%rdx,8)
	addl	$1, -4(%rbp)
.L42:
	cmpl	$25, -4(%rbp)
	jle	.L43
	nop
	nop
	popq	%rbp
	.cfi_def_cfa 7, 8
	ret
	.cfi_endproc
.LFE3605:
	.size	_ZN8trieHash4NodeC2Ev, .-_ZN8trieHash4NodeC2Ev
	.weak	_ZN8trieHash4NodeC1Ev
	.set	_ZN8trieHash4NodeC1Ev,_ZN8trieHash4NodeC2Ev
	.section	.text._ZN8trieHashC2Ev,"axG",@progbits,_ZN8trieHashC5Ev,comdat
	.align 2
	.weak	_ZN8trieHashC2Ev
	.type	_ZN8trieHashC2Ev, @function
_ZN8trieHashC2Ev:
.LFB3608:
	.cfi_startproc
	endbr64
	pushq	%rbp
	.cfi_def_cfa_offset 16
	.cfi_offset 6, -16
	movq	%rsp, %rbp
	.cfi_def_cfa_register 6
	subq	$16, %rsp
	movq	%rdi, -8(%rbp)
	movq	-8(%rbp), %rax
	movq	%rax, %rdi
	call	_ZN8trieHash4NodeC1Ev
	nop
	leave
	.cfi_def_cfa 7, 8
	ret
	.cfi_endproc
.LFE3608:
	.size	_ZN8trieHashC2Ev, .-_ZN8trieHashC2Ev
	.weak	_ZN8trieHashC1Ev
	.set	_ZN8trieHashC1Ev,_ZN8trieHashC2Ev
	.section	.text._ZN8trieHashD2Ev,"axG",@progbits,_ZN8trieHashD5Ev,comdat
	.align 2
	.weak	_ZN8trieHashD2Ev
	.type	_ZN8trieHashD2Ev, @function
_ZN8trieHashD2Ev:
.LFB3611:
	.cfi_startproc
	.cfi_personality 0x9b,DW.ref.__gxx_personality_v0
	.cfi_lsda 0x1b,.LLSDA3611
	endbr64
	pushq	%rbp
	.cfi_def_cfa_offset 16
	.cfi_offset 6, -16
	movq	%rsp, %rbp
	.cfi_def_cfa_register 6
	subq	$16, %rsp
	movq	%rdi, -8(%rbp)
	movq	-8(%rbp), %rdx
	movq	-8(%rbp), %rax
	movq	%rdx, %rsi
	movq	%rax, %rdi
	call	_ZN8trieHash6delAllEPNS_4NodeE
	nop
	leave
	.cfi_def_cfa 7, 8
	ret
	.cfi_endproc
.LFE3611:
	.section	.gcc_except_table._ZN8trieHashD2Ev,"aG",@progbits,_ZN8trieHashD5Ev,comdat
.LLSDA3611:
	.byte	0xff
	.byte	0xff
	.byte	0x1
	.uleb128 .LLSDACSE3611-.LLSDACSB3611
.LLSDACSB3611:
.LLSDACSE3611:
	.section	.text._ZN8trieHashD2Ev,"axG",@progbits,_ZN8trieHashD5Ev,comdat
	.size	_ZN8trieHashD2Ev, .-_ZN8trieHashD2Ev
	.weak	_ZN8trieHashD1Ev
	.set	_ZN8trieHashD1Ev,_ZN8trieHashD2Ev
	.section	.text._ZNSt6chrono8durationIdSt5ratioILl1ELl1000000EEEC1IlS1_ILl1ELl1000000000EEvEERKNS0_IT_T0_EE,"axG",@progbits,_ZNSt6chrono8durationIdSt5ratioILl1ELl1000000EEEC1IlS1_ILl1ELl1000000000EEvEERKNS0_IT_T0_EE,comdat
	.align 2
	.weak	_ZNSt6chrono8durationIdSt5ratioILl1ELl1000000EEEC1IlS1_ILl1ELl1000000000EEvEERKNS0_IT_T0_EE
	.type	_ZNSt6chrono8durationIdSt5ratioILl1ELl1000000EEEC1IlS1_ILl1ELl1000000000EEvEERKNS0_IT_T0_EE, @function
_ZNSt6chrono8durationIdSt5ratioILl1ELl1000000EEEC1IlS1_ILl1ELl1000000000EEvEERKNS0_IT_T0_EE:
.LFB3617:
	.cfi_startproc
	endbr64
	pushq	%rbp
	.cfi_def_cfa_offset 16
	.cfi_offset 6, -16
	movq	%rsp, %rbp
	.cfi_def_cfa_register 6
	subq	$32, %rsp
	movq	%rdi, -24(%rbp)
	movq	%rsi, -32(%rbp)
	movq	%fs:40, %rax
	movq	%rax, -8(%rbp)
	xorl	%eax, %eax
	movq	-32(%rbp), %rax
	movq	%rax, %rdi
	call	_ZNSt6chrono13duration_castINS_8durationIdSt5ratioILl1ELl1000000EEEElS2_ILl1ELl1000000000EEEENSt9enable_ifIXsrNS_13__is_durationIT_EE5valueES8_E4typeERKNS1_IT0_T1_EE
	movq	%xmm0, %rax
	movq	%rax, %xmm0
	movsd	%xmm0, -16(%rbp)
	leaq	-16(%rbp), %rax
	movq	%rax, %rdi
	call	_ZNKSt6chrono8durationIdSt5ratioILl1ELl1000000EEE5countEv
	movq	%xmm0, %rax
	movq	-24(%rbp), %rdx
	movq	%rax, (%rdx)
	nop
	movq	-8(%rbp), %rax
	subq	%fs:40, %rax
	je	.L47
	call	__stack_chk_fail@PLT
.L47:
	leave
	.cfi_def_cfa 7, 8
	ret
	.cfi_endproc
.LFE3617:
	.size	_ZNSt6chrono8durationIdSt5ratioILl1ELl1000000EEEC1IlS1_ILl1ELl1000000000EEvEERKNS0_IT_T0_EE, .-_ZNSt6chrono8durationIdSt5ratioILl1ELl1000000EEEC1IlS1_ILl1ELl1000000000EEvEERKNS0_IT_T0_EE
	.section	.text._ZNSt6chronomiINS_3_V212system_clockENS_8durationIlSt5ratioILl1ELl1000000000EEEES6_EENSt11common_typeIJT0_T1_EE4typeERKNS_10time_pointIT_S8_EERKNSC_ISD_S9_EE,"axG",@progbits,_ZNSt6chronomiINS_3_V212system_clockENS_8durationIlSt5ratioILl1ELl1000000000EEEES6_EENSt11common_typeIJT0_T1_EE4typeERKNS_10time_pointIT_S8_EERKNSC_ISD_S9_EE,comdat
	.weak	_ZNSt6chronomiINS_3_V212system_clockENS_8durationIlSt5ratioILl1ELl1000000000EEEES6_EENSt11common_typeIJT0_T1_EE4typeERKNS_10time_pointIT_S8_EERKNSC_ISD_S9_EE
	.type	_ZNSt6chronomiINS_3_V212system_clockENS_8durationIlSt5ratioILl1ELl1000000000EEEES6_EENSt11common_typeIJT0_T1_EE4typeERKNS_10time_pointIT_S8_EERKNSC_ISD_S9_EE, @function
_ZNSt6chronomiINS_3_V212system_clockENS_8durationIlSt5ratioILl1ELl1000000000EEEES6_EENSt11common_typeIJT0_T1_EE4typeERKNS_10time_pointIT_S8_EERKNSC_ISD_S9_EE:
.LFB3618:
	.cfi_startproc
	endbr64
	pushq	%rbp
	.cfi_def_cfa_offset 16
	.cfi_offset 6, -16
	movq	%rsp, %rbp
	.cfi_def_cfa_register 6
	subq	$48, %rsp
	movq	%rdi, -40(%rbp)
	movq	%rsi, -48(%rbp)
	movq	%fs:40, %rax
	movq	%rax, -8(%rbp)
	xorl	%eax, %eax
	movq	-48(%rbp), %rax
	movq	%rax, %rdi
	call	_ZNKSt6chrono10time_pointINS_3_V212system_clockENS_8durationIlSt5ratioILl1ELl1000000000EEEEE16time_since_epochEv
	movq	%rax, -16(%rbp)
	movq	-40(%rbp), %rax
	movq	%rax, %rdi
	call	_ZNKSt6chrono10time_pointINS_3_V212system_clockENS_8durationIlSt5ratioILl1ELl1000000000EEEEE16time_since_epochEv
	movq	%rax, -24(%rbp)
	leaq	-16(%rbp), %rdx
	leaq	-24(%rbp), %rax
	movq	%rdx, %rsi
	movq	%rax, %rdi
	call	_ZNSt6chronomiIlSt5ratioILl1ELl1000000000EElS2_EENSt11common_typeIJNS_8durationIT_T0_EENS4_IT1_T2_EEEE4typeERKS7_RKSA_
	movq	-8(%rbp), %rdx
	subq	%fs:40, %rdx
	je	.L50
	call	__stack_chk_fail@PLT
.L50:
	leave
	.cfi_def_cfa 7, 8
	ret
	.cfi_endproc
.LFE3618:
	.size	_ZNSt6chronomiINS_3_V212system_clockENS_8durationIlSt5ratioILl1ELl1000000000EEEES6_EENSt11common_typeIJT0_T1_EE4typeERKNS_10time_pointIT_S8_EERKNSC_ISD_S9_EE, .-_ZNSt6chronomiINS_3_V212system_clockENS_8durationIlSt5ratioILl1ELl1000000000EEEES6_EENSt11common_typeIJT0_T1_EE4typeERKNS_10time_pointIT_S8_EERKNSC_ISD_S9_EE
	.section	.text._ZNSt6chronomiIlSt5ratioILl1ELl1000000000EElS2_EENSt11common_typeIJNS_8durationIT_T0_EENS4_IT1_T2_EEEE4typeERKS7_RKSA_,"axG",@progbits,_ZNSt6chronomiIlSt5ratioILl1ELl1000000000EElS2_EENSt11common_typeIJNS_8durationIT_T0_EENS4_IT1_T2_EEEE4typeERKS7_RKSA_,comdat
	.weak	_ZNSt6chronomiIlSt5ratioILl1ELl1000000000EElS2_EENSt11common_typeIJNS_8durationIT_T0_EENS4_IT1_T2_EEEE4typeERKS7_RKSA_
	.type	_ZNSt6chronomiIlSt5ratioILl1ELl1000000000EElS2_EENSt11common_typeIJNS_8durationIT_T0_EENS4_IT1_T2_EEEE4typeERKS7_RKSA_, @function
_ZNSt6chronomiIlSt5ratioILl1ELl1000000000EElS2_EENSt11common_typeIJNS_8durationIT_T0_EENS4_IT1_T2_EEEE4typeERKS7_RKSA_:
.LFB3619:
	.cfi_startproc
	endbr64
	pushq	%rbp
	.cfi_def_cfa_offset 16
	.cfi_offset 6, -16
	movq	%rsp, %rbp
	.cfi_def_cfa_register 6
	pushq	%rbx
	subq	$72, %rsp
	.cfi_offset 3, -24
	movq	%rdi, -72(%rbp)
	movq	%rsi, -80(%rbp)
	movq	%fs:40, %rax
	movq	%rax, -24(%rbp)
	xorl	%eax, %eax
	movq	-72(%rbp), %rax
	movq	(%rax), %rax
	movq	%rax, -56(%rbp)
	leaq	-56(%rbp), %rax
	movq	%rax, %rdi
	call	_ZNKSt6chrono8durationIlSt5ratioILl1ELl1000000000EEE5countEv
	movq	%rax, %rbx
	movq	-80(%rbp), %rax
	movq	(%rax), %rax
	movq	%rax, -48(%rbp)
	leaq	-48(%rbp), %rax
	movq	%rax, %rdi
	call	_ZNKSt6chrono8durationIlSt5ratioILl1ELl1000000000EEE5countEv
	movq	%rax, %rdx
	movq	%rbx, %rax
	subq	%rdx, %rax
	movq	%rax, -40(%rbp)
	leaq	-40(%rbp), %rdx
	leaq	-32(%rbp), %rax
	movq	%rdx, %rsi
	movq	%rax, %rdi
	call	_ZNSt6chrono8durationIlSt5ratioILl1ELl1000000000EEEC1IlvEERKT_
	movq	-32(%rbp), %rax
	movq	-24(%rbp), %rdx
	subq	%fs:40, %rdx
	je	.L53
	call	__stack_chk_fail@PLT
.L53:
	movq	-8(%rbp), %rbx
	leave
	.cfi_def_cfa 7, 8
	ret
	.cfi_endproc
.LFE3619:
	.size	_ZNSt6chronomiIlSt5ratioILl1ELl1000000000EElS2_EENSt11common_typeIJNS_8durationIT_T0_EENS4_IT1_T2_EEEE4typeERKS7_RKSA_, .-_ZNSt6chronomiIlSt5ratioILl1ELl1000000000EElS2_EENSt11common_typeIJNS_8durationIT_T0_EENS4_IT1_T2_EEEE4typeERKS7_RKSA_
	.section	.text._ZNKSt6chrono10time_pointINS_3_V212system_clockENS_8durationIlSt5ratioILl1ELl1000000000EEEEE16time_since_epochEv,"axG",@progbits,_ZNKSt6chrono10time_pointINS_3_V212system_clockENS_8durationIlSt5ratioILl1ELl1000000000EEEEE16time_since_epochEv,comdat
	.align 2
	.weak	_ZNKSt6chrono10time_pointINS_3_V212system_clockENS_8durationIlSt5ratioILl1ELl1000000000EEEEE16time_since_epochEv
	.type	_ZNKSt6chrono10time_pointINS_3_V212system_clockENS_8durationIlSt5ratioILl1ELl1000000000EEEEE16time_since_epochEv, @function
_ZNKSt6chrono10time_pointINS_3_V212system_clockENS_8durationIlSt5ratioILl1ELl1000000000EEEEE16time_since_epochEv:
.LFB3620:
	.cfi_startproc
	endbr64
	pushq	%rbp
	.cfi_def_cfa_offset 16
	.cfi_offset 6, -16
	movq	%rsp, %rbp
	.cfi_def_cfa_register 6
	movq	%rdi, -8(%rbp)
	movq	-8(%rbp), %rax
	movq	(%rax), %rax
	popq	%rbp
	.cfi_def_cfa 7, 8
	ret
	.cfi_endproc
.LFE3620:
	.size	_ZNKSt6chrono10time_pointINS_3_V212system_clockENS_8durationIlSt5ratioILl1ELl1000000000EEEEE16time_since_epochEv, .-_ZNKSt6chrono10time_pointINS_3_V212system_clockENS_8durationIlSt5ratioILl1ELl1000000000EEEEE16time_since_epochEv
	.section	.text._ZN8trieHash10hashStringEPh,"axG",@progbits,_ZN8trieHash10hashStringEPh,comdat
	.align 2
	.weak	_ZN8trieHash10hashStringEPh
	.type	_ZN8trieHash10hashStringEPh, @function
_ZN8trieHash10hashStringEPh:
.LFB3613:
	.cfi_startproc
	endbr64
	pushq	%rbp
	.cfi_def_cfa_offset 16
	.cfi_offset 6, -16
	movq	%rsp, %rbp
	.cfi_def_cfa_register 6
	subq	$80, %rsp
	movq	%rdi, -72(%rbp)
	movq	%rsi, -80(%rbp)
	movq	%fs:40, %rax
	movq	%rax, -8(%rbp)
	xorl	%eax, %eax
	call	_ZNSt6chrono3_V212system_clock3nowEv@PLT
	movq	%rax, -48(%rbp)
	movq	$5381, -16(%rbp)
	jmp	.L57
.L58:
	movq	-16(%rbp), %rax
	salq	$5, %rax
	movq	%rax, %rdx
	movq	-16(%rbp), %rax
	addq	%rax, %rdx
	movl	-52(%rbp), %eax
	cltq
	addq	%rdx, %rax
	movq	%rax, -16(%rbp)
.L57:
	movq	-80(%rbp), %rax
	leaq	1(%rax), %rdx
	movq	%rdx, -80(%rbp)
	movzbl	(%rax), %eax
	movzbl	%al, %eax
	movl	%eax, -52(%rbp)
	cmpl	$0, -52(%rbp)
	setne	%al
	testb	%al, %al
	jne	.L58
	call	_ZNSt6chrono3_V212system_clock3nowEv@PLT
	movq	%rax, -40(%rbp)
	leaq	-48(%rbp), %rdx
	leaq	-40(%rbp), %rax
	movq	%rdx, %rsi
	movq	%rax, %rdi
	call	_ZNSt6chronomiINS_3_V212system_clockENS_8durationIlSt5ratioILl1ELl1000000000EEEES6_EENSt11common_typeIJT0_T1_EE4typeERKNS_10time_pointIT_S8_EERKNSC_ISD_S9_EE
	movq	%rax, -24(%rbp)
	leaq	-24(%rbp), %rdx
	leaq	-32(%rbp), %rax
	movq	%rdx, %rsi
	movq	%rax, %rdi
	call	_ZNSt6chrono8durationIdSt5ratioILl1ELl1000000EEEC1IlS1_ILl1ELl1000000000EEvEERKNS0_IT_T0_EE
	movq	-16(%rbp), %rax
	movq	-8(%rbp), %rdx
	subq	%fs:40, %rdx
	je	.L60
	call	__stack_chk_fail@PLT
.L60:
	leave
	.cfi_def_cfa 7, 8
	ret
	.cfi_endproc
.LFE3613:
	.size	_ZN8trieHash10hashStringEPh, .-_ZN8trieHash10hashStringEPh
	.section	.text._ZNKSt6chrono8durationIdSt5ratioILl1ELl1000000EEE5countEv,"axG",@progbits,_ZNKSt6chrono8durationIdSt5ratioILl1ELl1000000EEE5countEv,comdat
	.align 2
	.weak	_ZNKSt6chrono8durationIdSt5ratioILl1ELl1000000EEE5countEv
	.type	_ZNKSt6chrono8durationIdSt5ratioILl1ELl1000000EEE5countEv, @function
_ZNKSt6chrono8durationIdSt5ratioILl1ELl1000000EEE5countEv:
.LFB3622:
	.cfi_startproc
	endbr64
	pushq	%rbp
	.cfi_def_cfa_offset 16
	.cfi_offset 6, -16
	movq	%rsp, %rbp
	.cfi_def_cfa_register 6
	movq	%rdi, -8(%rbp)
	movq	-8(%rbp), %rax
	movsd	(%rax), %xmm0
	movq	%xmm0, %rax
	movq	%rax, %xmm0
	popq	%rbp
	.cfi_def_cfa 7, 8
	ret
	.cfi_endproc
.LFE3622:
	.size	_ZNKSt6chrono8durationIdSt5ratioILl1ELl1000000EEE5countEv, .-_ZNKSt6chrono8durationIdSt5ratioILl1ELl1000000EEE5countEv
	.section	.text._ZN8trieHash7addPrefENSt7__cxx1112basic_stringIcSt11char_traitsIcESaIcEEE,"axG",@progbits,_ZN8trieHash7addPrefENSt7__cxx1112basic_stringIcSt11char_traitsIcESaIcEEE,comdat
	.align 2
	.weak	_ZN8trieHash7addPrefENSt7__cxx1112basic_stringIcSt11char_traitsIcESaIcEEE
	.type	_ZN8trieHash7addPrefENSt7__cxx1112basic_stringIcSt11char_traitsIcESaIcEEE, @function
_ZN8trieHash7addPrefENSt7__cxx1112basic_stringIcSt11char_traitsIcESaIcEEE:
.LFB3621:
	.cfi_startproc
	endbr64
	pushq	%rbp
	.cfi_def_cfa_offset 16
	.cfi_offset 6, -16
	movq	%rsp, %rbp
	.cfi_def_cfa_register 6
	pushq	%rbx
	subq	$88, %rsp
	.cfi_offset 3, -24
	movq	%rdi, -88(%rbp)
	movq	%rsi, -96(%rbp)
	movq	%fs:40, %rax
	movq	%rax, -24(%rbp)
	xorl	%eax, %eax
	call	_ZNSt6chrono3_V212system_clock3nowEv@PLT
	movq	%rax, -64(%rbp)
	movq	-88(%rbp), %rax
	movq	%rax, -32(%rbp)
	movl	$0, -72(%rbp)
	jmp	.L64
.L66:
	movl	-72(%rbp), %eax
	movslq	%eax, %rdx
	movq	-96(%rbp), %rax
	movq	%rdx, %rsi
	movq	%rax, %rdi
	call	_ZNSt7__cxx1112basic_stringIcSt11char_traitsIcESaIcEEixEm@PLT
	movzbl	(%rax), %eax
	subl	$97, %eax
	movb	%al, -73(%rbp)
	movsbl	-73(%rbp), %edx
	movq	-32(%rbp), %rax
	movslq	%edx, %rdx
	addq	$2, %rdx
	movq	(%rax,%rdx,8), %rax
	testq	%rax, %rax
	jne	.L65
	movl	$224, %edi
	call	_Znwm@PLT
	movq	%rax, %rbx
	movq	%rbx, %rdi
	call	_ZN8trieHash4NodeC1Ev
	movsbl	-73(%rbp), %edx
	movq	-32(%rbp), %rax
	movslq	%edx, %rdx
	addq	$2, %rdx
	movq	%rbx, (%rax,%rdx,8)
.L65:
	movsbl	-73(%rbp), %edx
	movq	-32(%rbp), %rax
	movslq	%edx, %rdx
	addq	$2, %rdx
	movq	(%rax,%rdx,8), %rax
	movq	%rax, -32(%rbp)
	addl	$1, -72(%rbp)
.L64:
	movl	-72(%rbp), %eax
	movslq	%eax, %rbx
	movq	-96(%rbp), %rax
	movq	%rax, %rdi
	call	_ZNKSt7__cxx1112basic_stringIcSt11char_traitsIcESaIcEE6lengthEv@PLT
	cmpq	%rax, %rbx
	setb	%al
	testb	%al, %al
	jne	.L66
	movq	-32(%rbp), %rax
	movb	$1, (%rax)
	call	_ZNSt6chrono3_V212system_clock3nowEv@PLT
	movq	%rax, -56(%rbp)
	leaq	-64(%rbp), %rdx
	leaq	-56(%rbp), %rax
	movq	%rdx, %rsi
	movq	%rax, %rdi
	call	_ZNSt6chronomiINS_3_V212system_clockENS_8durationIlSt5ratioILl1ELl1000000000EEEES6_EENSt11common_typeIJT0_T1_EE4typeERKNS_10time_pointIT_S8_EERKNSC_ISD_S9_EE
	movq	%rax, -40(%rbp)
	leaq	-40(%rbp), %rdx
	leaq	-48(%rbp), %rax
	movq	%rdx, %rsi
	movq	%rax, %rdi
	call	_ZNSt6chrono8durationIdSt5ratioILl1ELl1000000EEEC1IlS1_ILl1ELl1000000000EEvEERKNS0_IT_T0_EE
	leaq	-48(%rbp), %rax
	movq	%rax, %rdi
	call	_ZNKSt6chrono8durationIdSt5ratioILl1ELl1000000EEE5countEv
	cvttsd2sil	%xmm0, %eax
	movl	%eax, -68(%rbp)
	nop
	movq	-24(%rbp), %rax
	subq	%fs:40, %rax
	je	.L67
	call	__stack_chk_fail@PLT
.L67:
	movq	-8(%rbp), %rbx
	leave
	.cfi_def_cfa 7, 8
	ret
	.cfi_endproc
.LFE3621:
	.size	_ZN8trieHash7addPrefENSt7__cxx1112basic_stringIcSt11char_traitsIcESaIcEEE, .-_ZN8trieHash7addPrefENSt7__cxx1112basic_stringIcSt11char_traitsIcESaIcEEE
	.section	.text._ZN8trieHash7addWordENSt7__cxx1112basic_stringIcSt11char_traitsIcESaIcEEE,"axG",@progbits,_ZN8trieHash7addWordENSt7__cxx1112basic_stringIcSt11char_traitsIcESaIcEEE,comdat
	.align 2
	.weak	_ZN8trieHash7addWordENSt7__cxx1112basic_stringIcSt11char_traitsIcESaIcEEE
	.type	_ZN8trieHash7addWordENSt7__cxx1112basic_stringIcSt11char_traitsIcESaIcEEE, @function
_ZN8trieHash7addWordENSt7__cxx1112basic_stringIcSt11char_traitsIcESaIcEEE:
.LFB3623:
	.cfi_startproc
	endbr64
	pushq	%rbp
	.cfi_def_cfa_offset 16
	.cfi_offset 6, -16
	movq	%rsp, %rbp
	.cfi_def_cfa_register 6
	pushq	%rbx
	subq	$104, %rsp
	.cfi_offset 3, -24
	movq	%rdi, -104(%rbp)
	movq	%rsi, -112(%rbp)
	movq	%fs:40, %rax
	movq	%rax, -24(%rbp)
	xorl	%eax, %eax
	call	_ZNSt6chrono3_V212system_clock3nowEv@PLT
	movq	%rax, -80(%rbp)
	movq	-104(%rbp), %rax
	movq	%rax, -48(%rbp)
	movq	$0, -40(%rbp)
	movl	$0, -84(%rbp)
	jmp	.L69
.L74:
	movl	-84(%rbp), %eax
	movslq	%eax, %rdx
	movq	-112(%rbp), %rax
	movq	%rdx, %rsi
	movq	%rax, %rdi
	call	_ZNSt7__cxx1112basic_stringIcSt11char_traitsIcESaIcEEixEm@PLT
	movzbl	(%rax), %eax
	subl	$97, %eax
	movb	%al, -85(%rbp)
	movq	-48(%rbp), %rax
	movzbl	(%rax), %eax
	movzbl	%al, %eax
	cmpl	$1, %eax
	jne	.L70
	movq	-48(%rbp), %rax
	movq	8(%rax), %rax
	movq	%rax, %rdi
	call	_ZNKSt13unordered_mapImNSt7__cxx1112basic_stringIcSt11char_traitsIcESaIcEEESt4hashImESt8equal_toImESaISt4pairIKmS5_EEE4sizeEv
	movq	-104(%rbp), %rdx
	movl	224(%rdx), %edx
	movl	%edx, %edx
	cmpq	%rdx, %rax
	jnb	.L70
	movl	$1, %eax
	jmp	.L71
.L70:
	movl	$0, %eax
.L71:
	testb	%al, %al
	je	.L72
	movq	-48(%rbp), %rax
	movq	8(%rax), %rax
	movq	%rax, -40(%rbp)
.L72:
	movsbl	-85(%rbp), %edx
	movq	-48(%rbp), %rax
	movslq	%edx, %rdx
	addq	$2, %rdx
	movq	(%rax,%rdx,8), %rax
	testq	%rax, %rax
	jne	.L73
	movl	$224, %edi
	call	_Znwm@PLT
	movq	%rax, %rbx
	movq	%rbx, %rdi
	call	_ZN8trieHash4NodeC1Ev
	movsbl	-85(%rbp), %edx
	movq	-48(%rbp), %rax
	movslq	%edx, %rdx
	addq	$2, %rdx
	movq	%rbx, (%rax,%rdx,8)
.L73:
	movsbl	-85(%rbp), %edx
	movq	-48(%rbp), %rax
	movslq	%edx, %rdx
	addq	$2, %rdx
	movq	(%rax,%rdx,8), %rax
	movq	%rax, -48(%rbp)
	addl	$1, -84(%rbp)
.L69:
	movl	-84(%rbp), %eax
	movslq	%eax, %rbx
	movq	-112(%rbp), %rax
	movq	%rax, %rdi
	call	_ZNKSt7__cxx1112basic_stringIcSt11char_traitsIcESaIcEE6lengthEv@PLT
	cmpq	%rax, %rbx
	setb	%al
	testb	%al, %al
	jne	.L74
	cmpq	$0, -40(%rbp)
	je	.L75
	movq	-112(%rbp), %rax
	movq	%rax, %rdi
	call	_ZNKSt7__cxx1112basic_stringIcSt11char_traitsIcESaIcEE5c_strEv@PLT
	movq	%rax, -32(%rbp)
	movq	-32(%rbp), %rdx
	movq	-104(%rbp), %rax
	movq	%rdx, %rsi
	movq	%rax, %rdi
	call	_ZN8trieHash10hashStringEPh
	movq	%rax, -56(%rbp)
	movq	-112(%rbp), %rdx
	leaq	-56(%rbp), %rcx
	movq	-40(%rbp), %rax
	movq	%rcx, %rsi
	movq	%rax, %rdi
	call	_ZNSt13unordered_mapImNSt7__cxx1112basic_stringIcSt11char_traitsIcESaIcEEESt4hashImESt8equal_toImESaISt4pairIKmS5_EEE7emplaceIJRmRS5_EEESA_INSt8__detail14_Node_iteratorISC_Lb0ELb0EEEbEDpOT_
	jmp	.L68
.L75:
	movq	-48(%rbp), %rax
	movb	$1, 1(%rax)
	call	_ZNSt6chrono3_V212system_clock3nowEv@PLT
	movq	%rax, -72(%rbp)
	leaq	-80(%rbp), %rdx
	leaq	-72(%rbp), %rax
	movq	%rdx, %rsi
	movq	%rax, %rdi
	call	_ZNSt6chronomiINS_3_V212system_clockENS_8durationIlSt5ratioILl1ELl1000000000EEEES6_EENSt11common_typeIJT0_T1_EE4typeERKNS_10time_pointIT_S8_EERKNSC_ISD_S9_EE
	movq	%rax, -56(%rbp)
	leaq	-56(%rbp), %rdx
	leaq	-64(%rbp), %rax
	movq	%rdx, %rsi
	movq	%rax, %rdi
	call	_ZNSt6chrono8durationIdSt5ratioILl1ELl1000000EEEC1IlS1_ILl1ELl1000000000EEvEERKNS0_IT_T0_EE
	nop
.L68:
	movq	-24(%rbp), %rax
	subq	%fs:40, %rax
	je	.L78
	call	__stack_chk_fail@PLT
.L78:
	movq	-8(%rbp), %rbx
	leave
	.cfi_def_cfa 7, 8
	ret
	.cfi_endproc
.LFE3623:
	.size	_ZN8trieHash7addWordENSt7__cxx1112basic_stringIcSt11char_traitsIcESaIcEEE, .-_ZN8trieHash7addWordENSt7__cxx1112basic_stringIcSt11char_traitsIcESaIcEEE
	.section	.text._ZN8trieHash6delAllEPNS_4NodeE,"axG",@progbits,_ZN8trieHash6delAllEPNS_4NodeE,comdat
	.align 2
	.weak	_ZN8trieHash6delAllEPNS_4NodeE
	.type	_ZN8trieHash6delAllEPNS_4NodeE, @function
_ZN8trieHash6delAllEPNS_4NodeE:
.LFB3630:
	.cfi_startproc
	endbr64
	pushq	%rbp
	.cfi_def_cfa_offset 16
	.cfi_offset 6, -16
	movq	%rsp, %rbp
	.cfi_def_cfa_register 6
	subq	$64, %rsp
	movq	%rdi, -56(%rbp)
	movq	%rsi, -64(%rbp)
	movq	%fs:40, %rax
	movq	%rax, -8(%rbp)
	xorl	%eax, %eax
	call	_ZNSt6chrono3_V212system_clock3nowEv@PLT
	movq	%rax, -40(%rbp)
	movl	$0, -44(%rbp)
	jmp	.L80
.L82:
	movq	-64(%rbp), %rax
	movl	-44(%rbp), %edx
	movslq	%edx, %rdx
	addq	$2, %rdx
	movq	(%rax,%rdx,8), %rax
	testq	%rax, %rax
	je	.L81
	movq	-64(%rbp), %rax
	movl	-44(%rbp), %edx
	movslq	%edx, %rdx
	addq	$2, %rdx
	movq	(%rax,%rdx,8), %rdx
	movq	-56(%rbp), %rax
	movq	%rdx, %rsi
	movq	%rax, %rdi
	call	_ZN8trieHash6delAllEPNS_4NodeE
.L81:
	addl	$1, -44(%rbp)
.L80:
	cmpl	$25, -44(%rbp)
	jle	.L82
	movq	-64(%rbp), %rax
	testq	%rax, %rax
	je	.L83
	movl	$224, %esi
	movq	%rax, %rdi
	call	_ZdlPvm@PLT
.L83:
	call	_ZNSt6chrono3_V212system_clock3nowEv@PLT
	movq	%rax, -32(%rbp)
	leaq	-40(%rbp), %rdx
	leaq	-32(%rbp), %rax
	movq	%rdx, %rsi
	movq	%rax, %rdi
	call	_ZNSt6chronomiINS_3_V212system_clockENS_8durationIlSt5ratioILl1ELl1000000000EEEES6_EENSt11common_typeIJT0_T1_EE4typeERKNS_10time_pointIT_S8_EERKNSC_ISD_S9_EE
	movq	%rax, -16(%rbp)
	leaq	-16(%rbp), %rdx
	leaq	-24(%rbp), %rax
	movq	%rdx, %rsi
	movq	%rax, %rdi
	call	_ZNSt6chrono8durationIdSt5ratioILl1ELl1000000EEEC1IlS1_ILl1ELl1000000000EEvEERKNS0_IT_T0_EE
	nop
	movq	-8(%rbp), %rax
	subq	%fs:40, %rax
	je	.L84
	call	__stack_chk_fail@PLT
.L84:
	leave
	.cfi_def_cfa 7, 8
	ret
	.cfi_endproc
.LFE3630:
	.size	_ZN8trieHash6delAllEPNS_4NodeE, .-_ZN8trieHash6delAllEPNS_4NodeE
	.section	.rodata
.LC0:
	.string	"["
	.align 8
.LC1:
	.string	"] has *NOT* been found in the dictionary."
	.align 8
.LC2:
	.string	"] has been found in the dictionary."
	.section	.text._ZN8trieHash11checkPrefixENSt7__cxx1112basic_stringIcSt11char_traitsIcESaIcEEE,"axG",@progbits,_ZN8trieHash11checkPrefixENSt7__cxx1112basic_stringIcSt11char_traitsIcESaIcEEE,comdat
	.align 2
	.weak	_ZN8trieHash11checkPrefixENSt7__cxx1112basic_stringIcSt11char_traitsIcESaIcEEE
	.type	_ZN8trieHash11checkPrefixENSt7__cxx1112basic_stringIcSt11char_traitsIcESaIcEEE, @function
_ZN8trieHash11checkPrefixENSt7__cxx1112basic_stringIcSt11char_traitsIcESaIcEEE:
.LFB3631:
	.cfi_startproc
	endbr64
	pushq	%rbp
	.cfi_def_cfa_offset 16
	.cfi_offset 6, -16
	movq	%rsp, %rbp
	.cfi_def_cfa_register 6
	pushq	%rbx
	subq	$88, %rsp
	.cfi_offset 3, -24
	movq	%rdi, -88(%rbp)
	movq	%rsi, -96(%rbp)
	movq	%fs:40, %rax
	movq	%rax, -24(%rbp)
	xorl	%eax, %eax
	call	_ZNSt6chrono3_V212system_clock3nowEv@PLT
	movq	%rax, -64(%rbp)
	movq	-88(%rbp), %rax
	movq	%rax, -32(%rbp)
	movl	$0, -72(%rbp)
	jmp	.L86
.L90:
	movl	-72(%rbp), %eax
	movslq	%eax, %rdx
	movq	-96(%rbp), %rax
	movq	%rdx, %rsi
	movq	%rax, %rdi
	call	_ZNSt7__cxx1112basic_stringIcSt11char_traitsIcESaIcEEixEm@PLT
	movzbl	(%rax), %eax
	movsbl	%al, %eax
	subl	$97, %eax
	movl	%eax, -68(%rbp)
	movq	-32(%rbp), %rax
	movl	-68(%rbp), %edx
	movslq	%edx, %rdx
	addq	$2, %rdx
	movq	(%rax,%rdx,8), %rax
	testq	%rax, %rax
	je	.L87
	movq	-32(%rbp), %rax
	movl	-68(%rbp), %edx
	movslq	%edx, %rdx
	addq	$2, %rdx
	movq	(%rax,%rdx,8), %rax
	movq	%rax, -32(%rbp)
	jmp	.L94
.L87:
	leaq	.LC0(%rip), %rax
	movq	%rax, %rsi
	leaq	_ZSt4cout(%rip), %rax
	movq	%rax, %rdi
	call	_ZStlsISt11char_traitsIcEERSt13basic_ostreamIcT_ES5_PKc@PLT
	movq	%rax, %rdx
	movq	-96(%rbp), %rax
	movq	%rax, %rsi
	movq	%rdx, %rdi
	call	_ZStlsIcSt11char_traitsIcESaIcEERSt13basic_ostreamIT_T0_ES7_RKNSt7__cxx1112basic_stringIS4_S5_T1_EE@PLT
	movq	%rax, %rdx
	leaq	.LC1(%rip), %rax
	movq	%rax, %rsi
	movq	%rdx, %rdi
	call	_ZStlsISt11char_traitsIcEERSt13basic_ostreamIcT_ES5_PKc@PLT
	movq	_ZSt4endlIcSt11char_traitsIcEERSt13basic_ostreamIT_T0_ES6_@GOTPCREL(%rip), %rdx
	movq	%rdx, %rsi
	movq	%rax, %rdi
	call	_ZNSolsEPFRSoS_E@PLT
	movl	$0, %eax
	jmp	.L92
.L94:
	addl	$1, -72(%rbp)
.L86:
	movl	-72(%rbp), %eax
	movslq	%eax, %rbx
	movq	-96(%rbp), %rax
	movq	%rax, %rdi
	call	_ZNKSt7__cxx1112basic_stringIcSt11char_traitsIcESaIcEE6lengthEv@PLT
	cmpq	%rax, %rbx
	setb	%al
	testb	%al, %al
	jne	.L90
	movq	-32(%rbp), %rax
	movzbl	(%rax), %eax
	movzbl	%al, %eax
	cmpl	$1, %eax
	jne	.L91
	leaq	.LC0(%rip), %rax
	movq	%rax, %rsi
	leaq	_ZSt4cout(%rip), %rax
	movq	%rax, %rdi
	call	_ZStlsISt11char_traitsIcEERSt13basic_ostreamIcT_ES5_PKc@PLT
	movq	%rax, %rdx
	movq	-96(%rbp), %rax
	movq	%rax, %rsi
	movq	%rdx, %rdi
	call	_ZStlsIcSt11char_traitsIcESaIcEERSt13basic_ostreamIT_T0_ES7_RKNSt7__cxx1112basic_stringIS4_S5_T1_EE@PLT
	movq	%rax, %rdx
	leaq	.LC2(%rip), %rax
	movq	%rax, %rsi
	movq	%rdx, %rdi
	call	_ZStlsISt11char_traitsIcEERSt13basic_ostreamIcT_ES5_PKc@PLT
	movq	_ZSt4endlIcSt11char_traitsIcEERSt13basic_ostreamIT_T0_ES6_@GOTPCREL(%rip), %rdx
	movq	%rdx, %rsi
	movq	%rax, %rdi
	call	_ZNSolsEPFRSoS_E@PLT
	call	_ZNSt6chrono3_V212system_clock3nowEv@PLT
	movq	%rax, -56(%rbp)
	leaq	-64(%rbp), %rdx
	leaq	-56(%rbp), %rax
	movq	%rdx, %rsi
	movq	%rax, %rdi
	call	_ZNSt6chronomiINS_3_V212system_clockENS_8durationIlSt5ratioILl1ELl1000000000EEEES6_EENSt11common_typeIJT0_T1_EE4typeERKNS_10time_pointIT_S8_EERKNSC_ISD_S9_EE
	movq	%rax, -40(%rbp)
	leaq	-40(%rbp), %rdx
	leaq	-48(%rbp), %rax
	movq	%rdx, %rsi
	movq	%rax, %rdi
	call	_ZNSt6chrono8durationIdSt5ratioILl1ELl1000000EEEC1IlS1_ILl1ELl1000000000EEvEERKNS0_IT_T0_EE
	movl	$1, %eax
	jmp	.L92
.L91:
	leaq	.LC0(%rip), %rax
	movq	%rax, %rsi
	leaq	_ZSt4cout(%rip), %rax
	movq	%rax, %rdi
	call	_ZStlsISt11char_traitsIcEERSt13basic_ostreamIcT_ES5_PKc@PLT
	movq	%rax, %rdx
	movq	-96(%rbp), %rax
	movq	%rax, %rsi
	movq	%rdx, %rdi
	call	_ZStlsIcSt11char_traitsIcESaIcEERSt13basic_ostreamIT_T0_ES7_RKNSt7__cxx1112basic_stringIS4_S5_T1_EE@PLT
	movq	%rax, %rdx
	leaq	.LC1(%rip), %rax
	movq	%rax, %rsi
	movq	%rdx, %rdi
	call	_ZStlsISt11char_traitsIcEERSt13basic_ostreamIcT_ES5_PKc@PLT
	movq	_ZSt4endlIcSt11char_traitsIcEERSt13basic_ostreamIT_T0_ES6_@GOTPCREL(%rip), %rdx
	movq	%rdx, %rsi
	movq	%rax, %rdi
	call	_ZNSolsEPFRSoS_E@PLT
	call	_ZNSt6chrono3_V212system_clock3nowEv@PLT
	movq	%rax, -56(%rbp)
	leaq	-64(%rbp), %rdx
	leaq	-56(%rbp), %rax
	movq	%rdx, %rsi
	movq	%rax, %rdi
	call	_ZNSt6chronomiINS_3_V212system_clockENS_8durationIlSt5ratioILl1ELl1000000000EEEES6_EENSt11common_typeIJT0_T1_EE4typeERKNS_10time_pointIT_S8_EERKNSC_ISD_S9_EE
	movq	%rax, -40(%rbp)
	leaq	-40(%rbp), %rdx
	leaq	-48(%rbp), %rax
	movq	%rdx, %rsi
	movq	%rax, %rdi
	call	_ZNSt6chrono8durationIdSt5ratioILl1ELl1000000EEEC1IlS1_ILl1ELl1000000000EEvEERKNS0_IT_T0_EE
	movl	$0, %eax
.L92:
	movq	-24(%rbp), %rdx
	subq	%fs:40, %rdx
	je	.L93
	call	__stack_chk_fail@PLT
.L93:
	movq	-8(%rbp), %rbx
	leave
	.cfi_def_cfa 7, 8
	ret
	.cfi_endproc
.LFE3631:
	.size	_ZN8trieHash11checkPrefixENSt7__cxx1112basic_stringIcSt11char_traitsIcESaIcEEE, .-_ZN8trieHash11checkPrefixENSt7__cxx1112basic_stringIcSt11char_traitsIcESaIcEEE
	.section	.text._ZNSt8__detail15_Hash_code_baseImSt4pairIKmNSt7__cxx1112basic_stringIcSt11char_traitsIcESaIcEEEENS_10_Select1stESt4hashImENS_18_Mod_range_hashingENS_20_Default_ranged_hashELb0EEC2Ev,"axG",@progbits,_ZNSt8__detail15_Hash_code_baseImSt4pairIKmNSt7__cxx1112basic_stringIcSt11char_traitsIcESaIcEEEENS_10_Select1stESt4hashImENS_18_Mod_range_hashingENS_20_Default_ranged_hashELb0EEC5Ev,comdat
	.align 2
	.weak	_ZNSt8__detail15_Hash_code_baseImSt4pairIKmNSt7__cxx1112basic_stringIcSt11char_traitsIcESaIcEEEENS_10_Select1stESt4hashImENS_18_Mod_range_hashingENS_20_Default_ranged_hashELb0EEC2Ev
	.type	_ZNSt8__detail15_Hash_code_baseImSt4pairIKmNSt7__cxx1112basic_stringIcSt11char_traitsIcESaIcEEEENS_10_Select1stESt4hashImENS_18_Mod_range_hashingENS_20_Default_ranged_hashELb0EEC2Ev, @function
_ZNSt8__detail15_Hash_code_baseImSt4pairIKmNSt7__cxx1112basic_stringIcSt11char_traitsIcESaIcEEEENS_10_Select1stESt4hashImENS_18_Mod_range_hashingENS_20_Default_ranged_hashELb0EEC2Ev:
.LFB3637:
	.cfi_startproc
	endbr64
	pushq	%rbp
	.cfi_def_cfa_offset 16
	.cfi_offset 6, -16
	movq	%rsp, %rbp
	.cfi_def_cfa_register 6
	subq	$16, %rsp
	movq	%rdi, -8(%rbp)
	movq	-8(%rbp), %rax
	movq	%rax, %rdi
	call	_ZNSt8__detail21_Hashtable_ebo_helperILi1ESt4hashImELb1EEC2Ev
	nop
	leave
	.cfi_def_cfa 7, 8
	ret
	.cfi_endproc
.LFE3637:
	.size	_ZNSt8__detail15_Hash_code_baseImSt4pairIKmNSt7__cxx1112basic_stringIcSt11char_traitsIcESaIcEEEENS_10_Select1stESt4hashImENS_18_Mod_range_hashingENS_20_Default_ranged_hashELb0EEC2Ev, .-_ZNSt8__detail15_Hash_code_baseImSt4pairIKmNSt7__cxx1112basic_stringIcSt11char_traitsIcESaIcEEEENS_10_Select1stESt4hashImENS_18_Mod_range_hashingENS_20_Default_ranged_hashELb0EEC2Ev
	.weak	_ZNSt8__detail15_Hash_code_baseImSt4pairIKmNSt7__cxx1112basic_stringIcSt11char_traitsIcESaIcEEEENS_10_Select1stESt4hashImENS_18_Mod_range_hashingENS_20_Default_ranged_hashELb0EEC1Ev
	.set	_ZNSt8__detail15_Hash_code_baseImSt4pairIKmNSt7__cxx1112basic_stringIcSt11char_traitsIcESaIcEEEENS_10_Select1stESt4hashImENS_18_Mod_range_hashingENS_20_Default_ranged_hashELb0EEC1Ev,_ZNSt8__detail15_Hash_code_baseImSt4pairIKmNSt7__cxx1112basic_stringIcSt11char_traitsIcESaIcEEEENS_10_Select1stESt4hashImENS_18_Mod_range_hashingENS_20_Default_ranged_hashELb0EEC2Ev
	.section	.text._ZNSt8__detail15_Hashtable_baseImSt4pairIKmNSt7__cxx1112basic_stringIcSt11char_traitsIcESaIcEEEENS_10_Select1stESt8equal_toImESt4hashImENS_18_Mod_range_hashingENS_20_Default_ranged_hashENS_17_Hashtable_traitsILb0ELb0ELb1EEEEC2Ev,"axG",@progbits,_ZNSt8__detail15_Hashtable_baseImSt4pairIKmNSt7__cxx1112basic_stringIcSt11char_traitsIcESaIcEEEENS_10_Select1stESt8equal_toImESt4hashImENS_18_Mod_range_hashingENS_20_Default_ranged_hashENS_17_Hashtable_traitsILb0ELb0ELb1EEEEC5Ev,comdat
	.align 2
	.weak	_ZNSt8__detail15_Hashtable_baseImSt4pairIKmNSt7__cxx1112basic_stringIcSt11char_traitsIcESaIcEEEENS_10_Select1stESt8equal_toImESt4hashImENS_18_Mod_range_hashingENS_20_Default_ranged_hashENS_17_Hashtable_traitsILb0ELb0ELb1EEEEC2Ev
	.type	_ZNSt8__detail15_Hashtable_baseImSt4pairIKmNSt7__cxx1112basic_stringIcSt11char_traitsIcESaIcEEEENS_10_Select1stESt8equal_toImESt4hashImENS_18_Mod_range_hashingENS_20_Default_ranged_hashENS_17_Hashtable_traitsILb0ELb0ELb1EEEEC2Ev, @function
_ZNSt8__detail15_Hashtable_baseImSt4pairIKmNSt7__cxx1112basic_stringIcSt11char_traitsIcESaIcEEEENS_10_Select1stESt8equal_toImESt4hashImENS_18_Mod_range_hashingENS_20_Default_ranged_hashENS_17_Hashtable_traitsILb0ELb0ELb1EEEEC2Ev:
.LFB3639:
	.cfi_startproc
	endbr64
	pushq	%rbp
	.cfi_def_cfa_offset 16
	.cfi_offset 6, -16
	movq	%rsp, %rbp
	.cfi_def_cfa_register 6
	subq	$16, %rsp
	movq	%rdi, -8(%rbp)
	movq	-8(%rbp), %rax
	movq	%rax, %rdi
	call	_ZNSt8__detail15_Hash_code_baseImSt4pairIKmNSt7__cxx1112basic_stringIcSt11char_traitsIcESaIcEEEENS_10_Select1stESt4hashImENS_18_Mod_range_hashingENS_20_Default_ranged_hashELb0EEC2Ev
	movq	-8(%rbp), %rax
	movq	%rax, %rdi
	call	_ZNSt8__detail21_Hashtable_ebo_helperILi0ESt8equal_toImELb1EEC2Ev
	nop
	leave
	.cfi_def_cfa 7, 8
	ret
	.cfi_endproc
.LFE3639:
	.size	_ZNSt8__detail15_Hashtable_baseImSt4pairIKmNSt7__cxx1112basic_stringIcSt11char_traitsIcESaIcEEEENS_10_Select1stESt8equal_toImESt4hashImENS_18_Mod_range_hashingENS_20_Default_ranged_hashENS_17_Hashtable_traitsILb0ELb0ELb1EEEEC2Ev, .-_ZNSt8__detail15_Hashtable_baseImSt4pairIKmNSt7__cxx1112basic_stringIcSt11char_traitsIcESaIcEEEENS_10_Select1stESt8equal_toImESt4hashImENS_18_Mod_range_hashingENS_20_Default_ranged_hashENS_17_Hashtable_traitsILb0ELb0ELb1EEEEC2Ev
	.weak	_ZNSt8__detail15_Hashtable_baseImSt4pairIKmNSt7__cxx1112basic_stringIcSt11char_traitsIcESaIcEEEENS_10_Select1stESt8equal_toImESt4hashImENS_18_Mod_range_hashingENS_20_Default_ranged_hashENS_17_Hashtable_traitsILb0ELb0ELb1EEEEC1Ev
	.set	_ZNSt8__detail15_Hashtable_baseImSt4pairIKmNSt7__cxx1112basic_stringIcSt11char_traitsIcESaIcEEEENS_10_Select1stESt8equal_toImESt4hashImENS_18_Mod_range_hashingENS_20_Default_ranged_hashENS_17_Hashtable_traitsILb0ELb0ELb1EEEEC1Ev,_ZNSt8__detail15_Hashtable_baseImSt4pairIKmNSt7__cxx1112basic_stringIcSt11char_traitsIcESaIcEEEENS_10_Select1stESt8equal_toImESt4hashImENS_18_Mod_range_hashingENS_20_Default_ranged_hashENS_17_Hashtable_traitsILb0ELb0ELb1EEEEC2Ev
	.section	.text._ZNSt8__detail16_Hashtable_allocISaINS_10_Hash_nodeISt4pairIKmNSt7__cxx1112basic_stringIcSt11char_traitsIcESaIcEEEELb0EEEEEC2Ev,"axG",@progbits,_ZNSt8__detail16_Hashtable_allocISaINS_10_Hash_nodeISt4pairIKmNSt7__cxx1112basic_stringIcSt11char_traitsIcESaIcEEEELb0EEEEEC5Ev,comdat
	.align 2
	.weak	_ZNSt8__detail16_Hashtable_allocISaINS_10_Hash_nodeISt4pairIKmNSt7__cxx1112basic_stringIcSt11char_traitsIcESaIcEEEELb0EEEEEC2Ev
	.type	_ZNSt8__detail16_Hashtable_allocISaINS_10_Hash_nodeISt4pairIKmNSt7__cxx1112basic_stringIcSt11char_traitsIcESaIcEEEELb0EEEEEC2Ev, @function
_ZNSt8__detail16_Hashtable_allocISaINS_10_Hash_nodeISt4pairIKmNSt7__cxx1112basic_stringIcSt11char_traitsIcESaIcEEEELb0EEEEEC2Ev:
.LFB3645:
	.cfi_startproc
	endbr64
	pushq	%rbp
	.cfi_def_cfa_offset 16
	.cfi_offset 6, -16
	movq	%rsp, %rbp
	.cfi_def_cfa_register 6
	subq	$16, %rsp
	movq	%rdi, -8(%rbp)
	movq	-8(%rbp), %rax
	movq	%rax, %rdi
	call	_ZNSt8__detail21_Hashtable_ebo_helperILi0ESaINS_10_Hash_nodeISt4pairIKmNSt7__cxx1112basic_stringIcSt11char_traitsIcESaIcEEEELb0EEEELb1EEC2Ev
	nop
	leave
	.cfi_def_cfa 7, 8
	ret
	.cfi_endproc
.LFE3645:
	.size	_ZNSt8__detail16_Hashtable_allocISaINS_10_Hash_nodeISt4pairIKmNSt7__cxx1112basic_stringIcSt11char_traitsIcESaIcEEEELb0EEEEEC2Ev, .-_ZNSt8__detail16_Hashtable_allocISaINS_10_Hash_nodeISt4pairIKmNSt7__cxx1112basic_stringIcSt11char_traitsIcESaIcEEEELb0EEEEEC2Ev
	.weak	_ZNSt8__detail16_Hashtable_allocISaINS_10_Hash_nodeISt4pairIKmNSt7__cxx1112basic_stringIcSt11char_traitsIcESaIcEEEELb0EEEEEC1Ev
	.set	_ZNSt8__detail16_Hashtable_allocISaINS_10_Hash_nodeISt4pairIKmNSt7__cxx1112basic_stringIcSt11char_traitsIcESaIcEEEELb0EEEEEC1Ev,_ZNSt8__detail16_Hashtable_allocISaINS_10_Hash_nodeISt4pairIKmNSt7__cxx1112basic_stringIcSt11char_traitsIcESaIcEEEELb0EEEEEC2Ev
	.section	.text._ZNSt10_HashtableImSt4pairIKmNSt7__cxx1112basic_stringIcSt11char_traitsIcESaIcEEEESaIS8_ENSt8__detail10_Select1stESt8equal_toImESt4hashImENSA_18_Mod_range_hashingENSA_20_Default_ranged_hashENSA_20_Prime_rehash_policyENSA_17_Hashtable_traitsILb0ELb0ELb1EEEEC2Ev,"axG",@progbits,_ZNSt10_HashtableImSt4pairIKmNSt7__cxx1112basic_stringIcSt11char_traitsIcESaIcEEEESaIS8_ENSt8__detail10_Select1stESt8equal_toImESt4hashImENSA_18_Mod_range_hashingENSA_20_Default_ranged_hashENSA_20_Prime_rehash_policyENSA_17_Hashtable_traitsILb0ELb0ELb1EEEEC5Ev,comdat
	.align 2
	.weak	_ZNSt10_HashtableImSt4pairIKmNSt7__cxx1112basic_stringIcSt11char_traitsIcESaIcEEEESaIS8_ENSt8__detail10_Select1stESt8equal_toImESt4hashImENSA_18_Mod_range_hashingENSA_20_Default_ranged_hashENSA_20_Prime_rehash_policyENSA_17_Hashtable_traitsILb0ELb0ELb1EEEEC2Ev
	.type	_ZNSt10_HashtableImSt4pairIKmNSt7__cxx1112basic_stringIcSt11char_traitsIcESaIcEEEESaIS8_ENSt8__detail10_Select1stESt8equal_toImESt4hashImENSA_18_Mod_range_hashingENSA_20_Default_ranged_hashENSA_20_Prime_rehash_policyENSA_17_Hashtable_traitsILb0ELb0ELb1EEEEC2Ev, @function
_ZNSt10_HashtableImSt4pairIKmNSt7__cxx1112basic_stringIcSt11char_traitsIcESaIcEEEESaIS8_ENSt8__detail10_Select1stESt8equal_toImESt4hashImENSA_18_Mod_range_hashingENSA_20_Default_ranged_hashENSA_20_Prime_rehash_policyENSA_17_Hashtable_traitsILb0ELb0ELb1EEEEC2Ev:
.LFB3650:
	.cfi_startproc
	endbr64
	pushq	%rbp
	.cfi_def_cfa_offset 16
	.cfi_offset 6, -16
	movq	%rsp, %rbp
	.cfi_def_cfa_register 6
	subq	$16, %rsp
	movq	%rdi, -8(%rbp)
	movq	-8(%rbp), %rax
	movq	%rax, %rdi
	call	_ZNSt8__detail15_Hashtable_baseImSt4pairIKmNSt7__cxx1112basic_stringIcSt11char_traitsIcESaIcEEEENS_10_Select1stESt8equal_toImESt4hashImENS_18_Mod_range_hashingENS_20_Default_ranged_hashENS_17_Hashtable_traitsILb0ELb0ELb1EEEEC2Ev
	movq	-8(%rbp), %rax
	movq	%rax, %rdi
	call	_ZNSt8__detail16_Hashtable_allocISaINS_10_Hash_nodeISt4pairIKmNSt7__cxx1112basic_stringIcSt11char_traitsIcESaIcEEEELb0EEEEEC2Ev
	movq	-8(%rbp), %rax
	leaq	48(%rax), %rdx
	movq	-8(%rbp), %rax
	movq	%rdx, (%rax)
	movq	-8(%rbp), %rax
	movq	$1, 8(%rax)
	movq	-8(%rbp), %rax
	addq	$16, %rax
	movq	%rax, %rdi
	call	_ZNSt8__detail15_Hash_node_baseC1Ev
	movq	-8(%rbp), %rax
	movq	$0, 24(%rax)
	movq	-8(%rbp), %rax
	leaq	32(%rax), %rdx
	movl	.LC3(%rip), %eax
	movd	%eax, %xmm0
	movq	%rdx, %rdi
	call	_ZNSt8__detail20_Prime_rehash_policyC1Ef
	movq	-8(%rbp), %rax
	movq	$0, 48(%rax)
	nop
	leave
	.cfi_def_cfa 7, 8
	ret
	.cfi_endproc
.LFE3650:
	.size	_ZNSt10_HashtableImSt4pairIKmNSt7__cxx1112basic_stringIcSt11char_traitsIcESaIcEEEESaIS8_ENSt8__detail10_Select1stESt8equal_toImESt4hashImENSA_18_Mod_range_hashingENSA_20_Default_ranged_hashENSA_20_Prime_rehash_policyENSA_17_Hashtable_traitsILb0ELb0ELb1EEEEC2Ev, .-_ZNSt10_HashtableImSt4pairIKmNSt7__cxx1112basic_stringIcSt11char_traitsIcESaIcEEEESaIS8_ENSt8__detail10_Select1stESt8equal_toImESt4hashImENSA_18_Mod_range_hashingENSA_20_Default_ranged_hashENSA_20_Prime_rehash_policyENSA_17_Hashtable_traitsILb0ELb0ELb1EEEEC2Ev
	.weak	_ZNSt10_HashtableImSt4pairIKmNSt7__cxx1112basic_stringIcSt11char_traitsIcESaIcEEEESaIS8_ENSt8__detail10_Select1stESt8equal_toImESt4hashImENSA_18_Mod_range_hashingENSA_20_Default_ranged_hashENSA_20_Prime_rehash_policyENSA_17_Hashtable_traitsILb0ELb0ELb1EEEEC1Ev
	.set	_ZNSt10_HashtableImSt4pairIKmNSt7__cxx1112basic_stringIcSt11char_traitsIcESaIcEEEESaIS8_ENSt8__detail10_Select1stESt8equal_toImESt4hashImENSA_18_Mod_range_hashingENSA_20_Default_ranged_hashENSA_20_Prime_rehash_policyENSA_17_Hashtable_traitsILb0ELb0ELb1EEEEC1Ev,_ZNSt10_HashtableImSt4pairIKmNSt7__cxx1112basic_stringIcSt11char_traitsIcESaIcEEEESaIS8_ENSt8__detail10_Select1stESt8equal_toImESt4hashImENSA_18_Mod_range_hashingENSA_20_Default_ranged_hashENSA_20_Prime_rehash_policyENSA_17_Hashtable_traitsILb0ELb0ELb1EEEEC2Ev
	.section	.text._ZNSt13unordered_mapImNSt7__cxx1112basic_stringIcSt11char_traitsIcESaIcEEESt4hashImESt8equal_toImESaISt4pairIKmS5_EEEC2Ev,"axG",@progbits,_ZNSt13unordered_mapImNSt7__cxx1112basic_stringIcSt11char_traitsIcESaIcEEESt4hashImESt8equal_toImESaISt4pairIKmS5_EEEC5Ev,comdat
	.align 2
	.weak	_ZNSt13unordered_mapImNSt7__cxx1112basic_stringIcSt11char_traitsIcESaIcEEESt4hashImESt8equal_toImESaISt4pairIKmS5_EEEC2Ev
	.type	_ZNSt13unordered_mapImNSt7__cxx1112basic_stringIcSt11char_traitsIcESaIcEEESt4hashImESt8equal_toImESaISt4pairIKmS5_EEEC2Ev, @function
_ZNSt13unordered_mapImNSt7__cxx1112basic_stringIcSt11char_traitsIcESaIcEEESt4hashImESt8equal_toImESaISt4pairIKmS5_EEEC2Ev:
.LFB3652:
	.cfi_startproc
	endbr64
	pushq	%rbp
	.cfi_def_cfa_offset 16
	.cfi_offset 6, -16
	movq	%rsp, %rbp
	.cfi_def_cfa_register 6
	subq	$16, %rsp
	movq	%rdi, -8(%rbp)
	movq	-8(%rbp), %rax
	movq	%rax, %rdi
	call	_ZNSt10_HashtableImSt4pairIKmNSt7__cxx1112basic_stringIcSt11char_traitsIcESaIcEEEESaIS8_ENSt8__detail10_Select1stESt8equal_toImESt4hashImENSA_18_Mod_range_hashingENSA_20_Default_ranged_hashENSA_20_Prime_rehash_policyENSA_17_Hashtable_traitsILb0ELb0ELb1EEEEC1Ev
	nop
	leave
	.cfi_def_cfa 7, 8
	ret
	.cfi_endproc
.LFE3652:
	.size	_ZNSt13unordered_mapImNSt7__cxx1112basic_stringIcSt11char_traitsIcESaIcEEESt4hashImESt8equal_toImESaISt4pairIKmS5_EEEC2Ev, .-_ZNSt13unordered_mapImNSt7__cxx1112basic_stringIcSt11char_traitsIcESaIcEEESt4hashImESt8equal_toImESaISt4pairIKmS5_EEEC2Ev
	.weak	_ZNSt13unordered_mapImNSt7__cxx1112basic_stringIcSt11char_traitsIcESaIcEEESt4hashImESt8equal_toImESaISt4pairIKmS5_EEEC1Ev
	.set	_ZNSt13unordered_mapImNSt7__cxx1112basic_stringIcSt11char_traitsIcESaIcEEESt4hashImESt8equal_toImESaISt4pairIKmS5_EEEC1Ev,_ZNSt13unordered_mapImNSt7__cxx1112basic_stringIcSt11char_traitsIcESaIcEEESt4hashImESt8equal_toImESaISt4pairIKmS5_EEEC2Ev
	.section	.rodata
.LC4:
	.string	"prefix ["
	.align 8
.LC5:
	.string	"] has *NOT* been found in the dictionary. Aborting Hashtable."
	.section	.text._ZN8trieHash13makeHashTableENSt7__cxx1112basic_stringIcSt11char_traitsIcESaIcEEERKSt6vectorIS5_SaIS5_EE,"axG",@progbits,_ZN8trieHash13makeHashTableENSt7__cxx1112basic_stringIcSt11char_traitsIcESaIcEEERKSt6vectorIS5_SaIS5_EE,comdat
	.align 2
	.weak	_ZN8trieHash13makeHashTableENSt7__cxx1112basic_stringIcSt11char_traitsIcESaIcEEERKSt6vectorIS5_SaIS5_EE
	.type	_ZN8trieHash13makeHashTableENSt7__cxx1112basic_stringIcSt11char_traitsIcESaIcEEERKSt6vectorIS5_SaIS5_EE, @function
_ZN8trieHash13makeHashTableENSt7__cxx1112basic_stringIcSt11char_traitsIcESaIcEEERKSt6vectorIS5_SaIS5_EE:
.LFB3632:
	.cfi_startproc
	.cfi_personality 0x9b,DW.ref.__gxx_personality_v0
	.cfi_lsda 0x1b,.LLSDA3632
	endbr64
	pushq	%rbp
	.cfi_def_cfa_offset 16
	.cfi_offset 6, -16
	movq	%rsp, %rbp
	.cfi_def_cfa_register 6
	pushq	%rbx
	subq	$184, %rsp
	.cfi_offset 3, -24
	movq	%rdi, -168(%rbp)
	movq	%rsi, -176(%rbp)
	movq	%rdx, -184(%rbp)
	movq	%fs:40, %rax
	movq	%rax, -24(%rbp)
	xorl	%eax, %eax
	call	_ZNSt6chrono3_V212system_clock3nowEv@PLT
	movq	%rax, -144(%rbp)
	movq	-168(%rbp), %rax
	movq	%rax, -104(%rbp)
	movl	$0, -152(%rbp)
	jmp	.L101
.L105:
	movl	-152(%rbp), %eax
	movslq	%eax, %rdx
	movq	-176(%rbp), %rax
	movq	%rdx, %rsi
	movq	%rax, %rdi
.LEHB0:
	call	_ZNSt7__cxx1112basic_stringIcSt11char_traitsIcESaIcEEixEm@PLT
	movzbl	(%rax), %eax
	movsbl	%al, %eax
	subl	$97, %eax
	movl	%eax, -148(%rbp)
	movq	-104(%rbp), %rax
	movl	-148(%rbp), %edx
	movslq	%edx, %rdx
	addq	$2, %rdx
	movq	(%rax,%rdx,8), %rax
	testq	%rax, %rax
	je	.L102
	movq	-104(%rbp), %rax
	movl	-148(%rbp), %edx
	movslq	%edx, %rdx
	addq	$2, %rdx
	movq	(%rax,%rdx,8), %rax
	movq	%rax, -104(%rbp)
	jmp	.L116
.L102:
	leaq	.LC4(%rip), %rax
	movq	%rax, %rsi
	leaq	_ZSt4cout(%rip), %rax
	movq	%rax, %rdi
	call	_ZStlsISt11char_traitsIcEERSt13basic_ostreamIcT_ES5_PKc@PLT
	movq	%rax, %rdx
	movq	-176(%rbp), %rax
	movq	%rax, %rsi
	movq	%rdx, %rdi
	call	_ZStlsIcSt11char_traitsIcESaIcEERSt13basic_ostreamIT_T0_ES7_RKNSt7__cxx1112basic_stringIS4_S5_T1_EE@PLT
	movq	%rax, %rdx
	leaq	.LC1(%rip), %rax
	movq	%rax, %rsi
	movq	%rdx, %rdi
	call	_ZStlsISt11char_traitsIcEERSt13basic_ostreamIcT_ES5_PKc@PLT
	movq	_ZSt4endlIcSt11char_traitsIcEERSt13basic_ostreamIT_T0_ES6_@GOTPCREL(%rip), %rdx
	movq	%rdx, %rsi
	movq	%rax, %rdi
	call	_ZNSolsEPFRSoS_E@PLT
	jmp	.L100
.L116:
	addl	$1, -152(%rbp)
.L101:
	movl	-152(%rbp), %eax
	movslq	%eax, %rbx
	movq	-176(%rbp), %rax
	movq	%rax, %rdi
	call	_ZNKSt7__cxx1112basic_stringIcSt11char_traitsIcESaIcEE6lengthEv@PLT
	cmpq	%rax, %rbx
	setb	%al
	testb	%al, %al
	jne	.L105
	movq	-104(%rbp), %rax
	movzbl	(%rax), %eax
	movzbl	%al, %eax
	cmpl	$1, %eax
	jne	.L106
	movl	$56, %edi
	call	_Znwm@PLT
	movq	%rax, %rbx
	movq	%rbx, %rdi
	call	_ZNSt13unordered_mapImNSt7__cxx1112basic_stringIcSt11char_traitsIcESaIcEEESt4hashImESt8equal_toImESaISt4pairIKmS5_EEEC1Ev
	movq	-104(%rbp), %rax
	movq	%rbx, 8(%rax)
	movq	-104(%rbp), %rax
	movq	8(%rax), %rax
	movq	%rax, -96(%rbp)
	movq	-184(%rbp), %rax
	movq	%rax, -88(%rbp)
	movq	-88(%rbp), %rax
	movq	%rax, %rdi
	call	_ZNKSt6vectorINSt7__cxx1112basic_stringIcSt11char_traitsIcESaIcEEESaIS5_EE5beginEv
	movq	%rax, -120(%rbp)
	movq	-88(%rbp), %rax
	movq	%rax, %rdi
	call	_ZNKSt6vectorINSt7__cxx1112basic_stringIcSt11char_traitsIcESaIcEEESaIS5_EE3endEv
	movq	%rax, -112(%rbp)
	jmp	.L108
.L106:
	leaq	.LC4(%rip), %rax
	movq	%rax, %rsi
	leaq	_ZSt4cout(%rip), %rax
	movq	%rax, %rdi
	call	_ZStlsISt11char_traitsIcEERSt13basic_ostreamIcT_ES5_PKc@PLT
	movq	%rax, %rdx
	movq	-176(%rbp), %rax
	movq	%rax, %rsi
	movq	%rdx, %rdi
	call	_ZStlsIcSt11char_traitsIcESaIcEERSt13basic_ostreamIT_T0_ES7_RKNSt7__cxx1112basic_stringIS4_S5_T1_EE@PLT
	movq	%rax, %rdx
	leaq	.LC5(%rip), %rax
	movq	%rax, %rsi
	movq	%rdx, %rdi
	call	_ZStlsISt11char_traitsIcEERSt13basic_ostreamIcT_ES5_PKc@PLT
	movq	_ZSt4endlIcSt11char_traitsIcEERSt13basic_ostreamIT_T0_ES6_@GOTPCREL(%rip), %rdx
	movq	%rdx, %rsi
	movq	%rax, %rdi
	call	_ZNSolsEPFRSoS_E@PLT
	jmp	.L100
.L109:
	leaq	-120(%rbp), %rax
	movq	%rax, %rdi
	call	_ZNK9__gnu_cxx17__normal_iteratorIPKNSt7__cxx1112basic_stringIcSt11char_traitsIcESaIcEEESt6vectorIS6_SaIS6_EEEdeEv
	movq	%rax, -80(%rbp)
	movq	-80(%rbp), %rax
	movq	%rax, %rdi
	call	_ZNKSt7__cxx1112basic_stringIcSt11char_traitsIcESaIcEE5c_strEv@PLT
	movq	%rax, -72(%rbp)
	movq	-72(%rbp), %rdx
	movq	-168(%rbp), %rax
	movq	%rdx, %rsi
	movq	%rax, %rdi
	call	_ZN8trieHash10hashStringEPh
.LEHE0:
	movq	%rax, -136(%rbp)
	movq	-96(%rbp), %rbx
	leaq	-128(%rbp), %rax
	movq	%rax, %rdi
	call	_ZNSaIcEC1Ev@PLT
	leaq	-128(%rbp), %rdx
	movq	-72(%rbp), %rcx
	leaq	-64(%rbp), %rax
	movq	%rcx, %rsi
	movq	%rax, %rdi
.LEHB1:
	call	_ZNSt7__cxx1112basic_stringIcSt11char_traitsIcESaIcEEC1IS3_EEPKcRKS3_
.LEHE1:
	leaq	-64(%rbp), %rdx
	leaq	-136(%rbp), %rax
	movq	%rax, %rsi
	movq	%rbx, %rdi
.LEHB2:
	call	_ZNSt13unordered_mapImNSt7__cxx1112basic_stringIcSt11char_traitsIcESaIcEEESt4hashImESt8equal_toImESaISt4pairIKmS5_EEE7emplaceIJRmS5_EEESA_INSt8__detail14_Node_iteratorISC_Lb0ELb0EEEbEDpOT_
.LEHE2:
	leaq	-64(%rbp), %rax
	movq	%rax, %rdi
	call	_ZNSt7__cxx1112basic_stringIcSt11char_traitsIcESaIcEED1Ev@PLT
	leaq	-128(%rbp), %rax
	movq	%rax, %rdi
	call	_ZNSaIcED1Ev@PLT
	leaq	-120(%rbp), %rax
	movq	%rax, %rdi
	call	_ZN9__gnu_cxx17__normal_iteratorIPKNSt7__cxx1112basic_stringIcSt11char_traitsIcESaIcEEESt6vectorIS6_SaIS6_EEEppEv
.L108:
	leaq	-112(%rbp), %rdx
	leaq	-120(%rbp), %rax
	movq	%rdx, %rsi
	movq	%rax, %rdi
	call	_ZN9__gnu_cxxneIPKNSt7__cxx1112basic_stringIcSt11char_traitsIcESaIcEEESt6vectorIS6_SaIS6_EEEEbRKNS_17__normal_iteratorIT_T0_EESH_
	testb	%al, %al
	jne	.L109
	call	_ZNSt6chrono3_V212system_clock3nowEv@PLT
	movq	%rax, -128(%rbp)
	leaq	-144(%rbp), %rdx
	leaq	-128(%rbp), %rax
	movq	%rdx, %rsi
	movq	%rax, %rdi
	call	_ZNSt6chronomiINS_3_V212system_clockENS_8durationIlSt5ratioILl1ELl1000000000EEEES6_EENSt11common_typeIJT0_T1_EE4typeERKNS_10time_pointIT_S8_EERKNSC_ISD_S9_EE
	movq	%rax, -112(%rbp)
	leaq	-112(%rbp), %rdx
	leaq	-120(%rbp), %rax
	movq	%rdx, %rsi
	movq	%rax, %rdi
.LEHB3:
	call	_ZNSt6chrono8durationIdSt5ratioILl1ELl1000000EEEC1IlS1_ILl1ELl1000000000EEvEERKNS0_IT_T0_EE
	jmp	.L100
.L115:
	endbr64
	movq	%rax, %rbx
	leaq	-64(%rbp), %rax
	movq	%rax, %rdi
	call	_ZNSt7__cxx1112basic_stringIcSt11char_traitsIcESaIcEED1Ev@PLT
	jmp	.L112
.L114:
	endbr64
	movq	%rax, %rbx
.L112:
	leaq	-128(%rbp), %rax
	movq	%rax, %rdi
	call	_ZNSaIcED1Ev@PLT
	movq	%rbx, %rax
	movq	%rax, %rdi
	call	_Unwind_Resume@PLT
.LEHE3:
.L100:
	movq	-24(%rbp), %rax
	subq	%fs:40, %rax
	je	.L113
	call	__stack_chk_fail@PLT
.L113:
	movq	-8(%rbp), %rbx
	leave
	.cfi_def_cfa 7, 8
	ret
	.cfi_endproc
.LFE3632:
	.section	.gcc_except_table._ZN8trieHash13makeHashTableENSt7__cxx1112basic_stringIcSt11char_traitsIcESaIcEEERKSt6vectorIS5_SaIS5_EE,"aG",@progbits,_ZN8trieHash13makeHashTableENSt7__cxx1112basic_stringIcSt11char_traitsIcESaIcEEERKSt6vectorIS5_SaIS5_EE,comdat
.LLSDA3632:
	.byte	0xff
	.byte	0xff
	.byte	0x1
	.uleb128 .LLSDACSE3632-.LLSDACSB3632
.LLSDACSB3632:
	.uleb128 .LEHB0-.LFB3632
	.uleb128 .LEHE0-.LEHB0
	.uleb128 0
	.uleb128 0
	.uleb128 .LEHB1-.LFB3632
	.uleb128 .LEHE1-.LEHB1
	.uleb128 .L114-.LFB3632
	.uleb128 0
	.uleb128 .LEHB2-.LFB3632
	.uleb128 .LEHE2-.LEHB2
	.uleb128 .L115-.LFB3632
	.uleb128 0
	.uleb128 .LEHB3-.LFB3632
	.uleb128 .LEHE3-.LEHB3
	.uleb128 0
	.uleb128 0
.LLSDACSE3632:
	.section	.text._ZN8trieHash13makeHashTableENSt7__cxx1112basic_stringIcSt11char_traitsIcESaIcEEERKSt6vectorIS5_SaIS5_EE,"axG",@progbits,_ZN8trieHash13makeHashTableENSt7__cxx1112basic_stringIcSt11char_traitsIcESaIcEEERKSt6vectorIS5_SaIS5_EE,comdat
	.size	_ZN8trieHash13makeHashTableENSt7__cxx1112basic_stringIcSt11char_traitsIcESaIcEEERKSt6vectorIS5_SaIS5_EE, .-_ZN8trieHash13makeHashTableENSt7__cxx1112basic_stringIcSt11char_traitsIcESaIcEEERKSt6vectorIS5_SaIS5_EE
	.section	.rodata
.LC6:
	.string	""
.LC7:
	.string	" found: ["
.LC8:
	.string	"]"
	.align 8
.LC9:
	.string	"has been found in the dictionary."
	.section	.text._ZN8trieHash8findWordENSt7__cxx1112basic_stringIcSt11char_traitsIcESaIcEEE,"axG",@progbits,_ZN8trieHash8findWordENSt7__cxx1112basic_stringIcSt11char_traitsIcESaIcEEE,comdat
	.align 2
	.weak	_ZN8trieHash8findWordENSt7__cxx1112basic_stringIcSt11char_traitsIcESaIcEEE
	.type	_ZN8trieHash8findWordENSt7__cxx1112basic_stringIcSt11char_traitsIcESaIcEEE, @function
_ZN8trieHash8findWordENSt7__cxx1112basic_stringIcSt11char_traitsIcESaIcEEE:
.LFB3654:
	.cfi_startproc
	.cfi_personality 0x9b,DW.ref.__gxx_personality_v0
	.cfi_lsda 0x1b,.LLSDA3654
	endbr64
	pushq	%rbp
	.cfi_def_cfa_offset 16
	.cfi_offset 6, -16
	movq	%rsp, %rbp
	.cfi_def_cfa_register 6
	pushq	%rbx
	subq	$136, %rsp
	.cfi_offset 3, -24
	movq	%rdi, -136(%rbp)
	movq	%rsi, -144(%rbp)
	movq	%fs:40, %rax
	movq	%rax, -24(%rbp)
	xorl	%eax, %eax
	call	_ZNSt6chrono3_V212system_clock3nowEv@PLT
	movq	%rax, -120(%rbp)
	movq	-136(%rbp), %rax
	movq	%rax, -80(%rbp)
	movq	-144(%rbp), %rax
	movq	%rax, %rdi
	call	_ZNKSt7__cxx1112basic_stringIcSt11char_traitsIcESaIcEE5c_strEv@PLT
	movq	%rax, %rdx
	movq	-136(%rbp), %rax
	movq	%rdx, %rsi
	movq	%rax, %rdi
.LEHB4:
	call	_ZN8trieHash10hashStringEPh
.LEHE4:
	movq	%rax, -112(%rbp)
	leaq	-88(%rbp), %rax
	movq	%rax, %rdi
	call	_ZNSaIcEC1Ev@PLT
	leaq	-88(%rbp), %rdx
	leaq	-64(%rbp), %rax
	leaq	.LC6(%rip), %rcx
	movq	%rcx, %rsi
	movq	%rax, %rdi
.LEHB5:
	call	_ZNSt7__cxx1112basic_stringIcSt11char_traitsIcESaIcEEC1IS3_EEPKcRKS3_
.LEHE5:
	leaq	-88(%rbp), %rax
	movq	%rax, %rdi
	call	_ZNSaIcED1Ev@PLT
	movl	$0, -128(%rbp)
	jmp	.L118
.L125:
	movl	-128(%rbp), %eax
	movslq	%eax, %rdx
	movq	-144(%rbp), %rax
	movq	%rdx, %rsi
	movq	%rax, %rdi
.LEHB6:
	call	_ZNSt7__cxx1112basic_stringIcSt11char_traitsIcESaIcEEixEm@PLT
	movzbl	(%rax), %eax
	movsbl	%al, %eax
	subl	$97, %eax
	movl	%eax, -124(%rbp)
	movq	-80(%rbp), %rax
	movl	-124(%rbp), %edx
	movslq	%edx, %rdx
	addq	$2, %rdx
	movq	(%rax,%rdx,8), %rax
	testq	%rax, %rax
	je	.L119
	movq	-80(%rbp), %rax
	movl	-124(%rbp), %edx
	movslq	%edx, %rdx
	addq	$2, %rdx
	movq	(%rax,%rdx,8), %rax
	movq	%rax, -80(%rbp)
	movq	-80(%rbp), %rax
	movq	8(%rax), %rax
	movq	%rax, -72(%rbp)
	movq	-80(%rbp), %rax
	movzbl	(%rax), %eax
	movzbl	%al, %eax
	cmpl	$1, %eax
	jne	.L120
	leaq	-112(%rbp), %rdx
	movq	-72(%rbp), %rax
	movq	%rdx, %rsi
	movq	%rax, %rdi
	call	_ZNSt13unordered_mapImNSt7__cxx1112basic_stringIcSt11char_traitsIcESaIcEEESt4hashImESt8equal_toImESaISt4pairIKmS5_EEE4findERSB_
	movq	%rax, -96(%rbp)
	movq	-72(%rbp), %rax
	movq	%rax, %rdi
	call	_ZNSt13unordered_mapImNSt7__cxx1112basic_stringIcSt11char_traitsIcESaIcEEESt4hashImESt8equal_toImESaISt4pairIKmS5_EEE3endEv
	movq	%rax, -88(%rbp)
	leaq	-88(%rbp), %rdx
	leaq	-96(%rbp), %rax
	movq	%rdx, %rsi
	movq	%rax, %rdi
	call	_ZNSt8__detaileqERKNS_19_Node_iterator_baseISt4pairIKmNSt7__cxx1112basic_stringIcSt11char_traitsIcESaIcEEEELb0EEESC_
	testb	%al, %al
	jne	.L134
	leaq	.LC7(%rip), %rax
	movq	%rax, %rsi
	leaq	_ZSt4cout(%rip), %rax
	movq	%rax, %rdi
	call	_ZStlsISt11char_traitsIcEERSt13basic_ostreamIcT_ES5_PKc@PLT
	movq	%rax, %rbx
	leaq	-96(%rbp), %rax
	movq	%rax, %rdi
	call	_ZNKSt8__detail14_Node_iteratorISt4pairIKmNSt7__cxx1112basic_stringIcSt11char_traitsIcESaIcEEEELb0ELb0EEptEv
	addq	$8, %rax
	movq	%rax, %rsi
	movq	%rbx, %rdi
	call	_ZStlsIcSt11char_traitsIcESaIcEERSt13basic_ostreamIT_T0_ES7_RKNSt7__cxx1112basic_stringIS4_S5_T1_EE@PLT
	movq	%rax, %rdx
	leaq	.LC8(%rip), %rax
	movq	%rax, %rsi
	movq	%rdx, %rdi
	call	_ZStlsISt11char_traitsIcEERSt13basic_ostreamIcT_ES5_PKc@PLT
	movq	_ZSt4endlIcSt11char_traitsIcEERSt13basic_ostreamIT_T0_ES6_@GOTPCREL(%rip), %rdx
	movq	%rdx, %rsi
	movq	%rax, %rdi
	call	_ZNSolsEPFRSoS_E@PLT
	jmp	.L122
.L119:
	movq	-80(%rbp), %rax
	movzbl	1(%rax), %eax
	movzbl	%al, %eax
	cmpl	$1, %eax
	jne	.L123
	leaq	.LC0(%rip), %rax
	movq	%rax, %rsi
	leaq	_ZSt4cout(%rip), %rax
	movq	%rax, %rdi
	call	_ZStlsISt11char_traitsIcEERSt13basic_ostreamIcT_ES5_PKc@PLT
	movq	%rax, %rdx
	movq	-144(%rbp), %rax
	movq	%rax, %rsi
	movq	%rdx, %rdi
	call	_ZStlsIcSt11char_traitsIcESaIcEERSt13basic_ostreamIT_T0_ES7_RKNSt7__cxx1112basic_stringIS4_S5_T1_EE@PLT
	movq	%rax, %rdx
	leaq	.LC8(%rip), %rax
	movq	%rax, %rsi
	movq	%rdx, %rdi
	call	_ZStlsISt11char_traitsIcEERSt13basic_ostreamIcT_ES5_PKc@PLT
	movq	%rax, %rdx
	leaq	.LC9(%rip), %rax
	movq	%rax, %rsi
	movq	%rdx, %rdi
	call	_ZStlsISt11char_traitsIcEERSt13basic_ostreamIcT_ES5_PKc@PLT
	movq	_ZSt4endlIcSt11char_traitsIcEERSt13basic_ostreamIT_T0_ES6_@GOTPCREL(%rip), %rdx
	movq	%rdx, %rsi
	movq	%rax, %rdi
	call	_ZNSolsEPFRSoS_E@PLT
	jmp	.L120
.L123:
	leaq	.LC0(%rip), %rax
	movq	%rax, %rsi
	leaq	_ZSt4cout(%rip), %rax
	movq	%rax, %rdi
	call	_ZStlsISt11char_traitsIcEERSt13basic_ostreamIcT_ES5_PKc@PLT
	movq	%rax, %rdx
	movq	-144(%rbp), %rax
	movq	%rax, %rsi
	movq	%rdx, %rdi
	call	_ZStlsIcSt11char_traitsIcESaIcEERSt13basic_ostreamIT_T0_ES7_RKNSt7__cxx1112basic_stringIS4_S5_T1_EE@PLT
	movq	%rax, %rdx
	leaq	.LC1(%rip), %rax
	movq	%rax, %rsi
	movq	%rdx, %rdi
	call	_ZStlsISt11char_traitsIcEERSt13basic_ostreamIcT_ES5_PKc@PLT
	movq	_ZSt4endlIcSt11char_traitsIcEERSt13basic_ostreamIT_T0_ES6_@GOTPCREL(%rip), %rdx
	movq	%rdx, %rsi
	movq	%rax, %rdi
	call	_ZNSolsEPFRSoS_E@PLT
	call	_ZNSt6chrono3_V212system_clock3nowEv@PLT
	movq	%rax, -104(%rbp)
	leaq	-120(%rbp), %rdx
	leaq	-104(%rbp), %rax
	movq	%rdx, %rsi
	movq	%rax, %rdi
	call	_ZNSt6chronomiINS_3_V212system_clockENS_8durationIlSt5ratioILl1ELl1000000000EEEES6_EENSt11common_typeIJT0_T1_EE4typeERKNS_10time_pointIT_S8_EERKNSC_ISD_S9_EE
	movq	%rax, -88(%rbp)
	leaq	-88(%rbp), %rdx
	leaq	-96(%rbp), %rax
	movq	%rdx, %rsi
	movq	%rax, %rdi
	call	_ZNSt6chrono8durationIdSt5ratioILl1ELl1000000EEEC1IlS1_ILl1ELl1000000000EEvEERKNS0_IT_T0_EE
	movl	$0, %ebx
	jmp	.L124
.L134:
	nop
.L120:
	addl	$1, -128(%rbp)
.L118:
	movl	-128(%rbp), %eax
	movslq	%eax, %rbx
	movq	-144(%rbp), %rax
	movq	%rax, %rdi
	call	_ZNKSt7__cxx1112basic_stringIcSt11char_traitsIcESaIcEE6lengthEv@PLT
	cmpq	%rax, %rbx
	setb	%al
	testb	%al, %al
	jne	.L125
.L122:
	call	_ZNSt6chrono3_V212system_clock3nowEv@PLT
	movq	%rax, -104(%rbp)
	leaq	-120(%rbp), %rdx
	leaq	-104(%rbp), %rax
	movq	%rdx, %rsi
	movq	%rax, %rdi
	call	_ZNSt6chronomiINS_3_V212system_clockENS_8durationIlSt5ratioILl1ELl1000000000EEEES6_EENSt11common_typeIJT0_T1_EE4typeERKNS_10time_pointIT_S8_EERKNSC_ISD_S9_EE
	movq	%rax, -88(%rbp)
	leaq	-88(%rbp), %rdx
	leaq	-96(%rbp), %rax
	movq	%rdx, %rsi
	movq	%rax, %rdi
	call	_ZNSt6chrono8durationIdSt5ratioILl1ELl1000000EEEC1IlS1_ILl1ELl1000000000EEvEERKNS0_IT_T0_EE
.LEHE6:
	movl	$1, %ebx
.L124:
	leaq	-64(%rbp), %rax
	movq	%rax, %rdi
	call	_ZNSt7__cxx1112basic_stringIcSt11char_traitsIcESaIcEED1Ev@PLT
	cmpl	$1, %ebx
	movq	-24(%rbp), %rax
	subq	%fs:40, %rax
	je	.L130
	jmp	.L133
.L131:
	endbr64
	movq	%rax, %rbx
	leaq	-88(%rbp), %rax
	movq	%rax, %rdi
	call	_ZNSaIcED1Ev@PLT
	movq	%rbx, %rax
	movq	%rax, %rdi
.LEHB7:
	call	_Unwind_Resume@PLT
.L132:
	endbr64
	movq	%rax, %rbx
	leaq	-64(%rbp), %rax
	movq	%rax, %rdi
	call	_ZNSt7__cxx1112basic_stringIcSt11char_traitsIcESaIcEED1Ev@PLT
	movq	%rbx, %rax
	movq	%rax, %rdi
	call	_Unwind_Resume@PLT
.LEHE7:
.L133:
	call	__stack_chk_fail@PLT
.L130:
	movq	-8(%rbp), %rbx
	leave
	.cfi_def_cfa 7, 8
	ret
	.cfi_endproc
.LFE3654:
	.section	.gcc_except_table._ZN8trieHash8findWordENSt7__cxx1112basic_stringIcSt11char_traitsIcESaIcEEE,"aG",@progbits,_ZN8trieHash8findWordENSt7__cxx1112basic_stringIcSt11char_traitsIcESaIcEEE,comdat
.LLSDA3654:
	.byte	0xff
	.byte	0xff
	.byte	0x1
	.uleb128 .LLSDACSE3654-.LLSDACSB3654
.LLSDACSB3654:
	.uleb128 .LEHB4-.LFB3654
	.uleb128 .LEHE4-.LEHB4
	.uleb128 0
	.uleb128 0
	.uleb128 .LEHB5-.LFB3654
	.uleb128 .LEHE5-.LEHB5
	.uleb128 .L131-.LFB3654
	.uleb128 0
	.uleb128 .LEHB6-.LFB3654
	.uleb128 .LEHE6-.LEHB6
	.uleb128 .L132-.LFB3654
	.uleb128 0
	.uleb128 .LEHB7-.LFB3654
	.uleb128 .LEHE7-.LEHB7
	.uleb128 0
	.uleb128 0
.LLSDACSE3654:
	.section	.text._ZN8trieHash8findWordENSt7__cxx1112basic_stringIcSt11char_traitsIcESaIcEEE,"axG",@progbits,_ZN8trieHash8findWordENSt7__cxx1112basic_stringIcSt11char_traitsIcESaIcEEE,comdat
	.size	_ZN8trieHash8findWordENSt7__cxx1112basic_stringIcSt11char_traitsIcESaIcEEE, .-_ZN8trieHash8findWordENSt7__cxx1112basic_stringIcSt11char_traitsIcESaIcEEE
	.section	.text._ZNSt8__detail15_Hash_code_baseIiSt4pairIKicENS_10_Select1stESt4hashIiENS_18_Mod_range_hashingENS_20_Default_ranged_hashELb0EEC2Ev,"axG",@progbits,_ZNSt8__detail15_Hash_code_baseIiSt4pairIKicENS_10_Select1stESt4hashIiENS_18_Mod_range_hashingENS_20_Default_ranged_hashELb0EEC5Ev,comdat
	.align 2
	.weak	_ZNSt8__detail15_Hash_code_baseIiSt4pairIKicENS_10_Select1stESt4hashIiENS_18_Mod_range_hashingENS_20_Default_ranged_hashELb0EEC2Ev
	.type	_ZNSt8__detail15_Hash_code_baseIiSt4pairIKicENS_10_Select1stESt4hashIiENS_18_Mod_range_hashingENS_20_Default_ranged_hashELb0EEC2Ev, @function
_ZNSt8__detail15_Hash_code_baseIiSt4pairIKicENS_10_Select1stESt4hashIiENS_18_Mod_range_hashingENS_20_Default_ranged_hashELb0EEC2Ev:
.LFB3661:
	.cfi_startproc
	endbr64
	pushq	%rbp
	.cfi_def_cfa_offset 16
	.cfi_offset 6, -16
	movq	%rsp, %rbp
	.cfi_def_cfa_register 6
	subq	$16, %rsp
	movq	%rdi, -8(%rbp)
	movq	-8(%rbp), %rax
	movq	%rax, %rdi
	call	_ZNSt8__detail21_Hashtable_ebo_helperILi1ESt4hashIiELb1EEC2Ev
	nop
	leave
	.cfi_def_cfa 7, 8
	ret
	.cfi_endproc
.LFE3661:
	.size	_ZNSt8__detail15_Hash_code_baseIiSt4pairIKicENS_10_Select1stESt4hashIiENS_18_Mod_range_hashingENS_20_Default_ranged_hashELb0EEC2Ev, .-_ZNSt8__detail15_Hash_code_baseIiSt4pairIKicENS_10_Select1stESt4hashIiENS_18_Mod_range_hashingENS_20_Default_ranged_hashELb0EEC2Ev
	.weak	_ZNSt8__detail15_Hash_code_baseIiSt4pairIKicENS_10_Select1stESt4hashIiENS_18_Mod_range_hashingENS_20_Default_ranged_hashELb0EEC1Ev
	.set	_ZNSt8__detail15_Hash_code_baseIiSt4pairIKicENS_10_Select1stESt4hashIiENS_18_Mod_range_hashingENS_20_Default_ranged_hashELb0EEC1Ev,_ZNSt8__detail15_Hash_code_baseIiSt4pairIKicENS_10_Select1stESt4hashIiENS_18_Mod_range_hashingENS_20_Default_ranged_hashELb0EEC2Ev
	.section	.text._ZNSt8__detail15_Hashtable_baseIiSt4pairIKicENS_10_Select1stESt8equal_toIiESt4hashIiENS_18_Mod_range_hashingENS_20_Default_ranged_hashENS_17_Hashtable_traitsILb0ELb0ELb1EEEEC2Ev,"axG",@progbits,_ZNSt8__detail15_Hashtable_baseIiSt4pairIKicENS_10_Select1stESt8equal_toIiESt4hashIiENS_18_Mod_range_hashingENS_20_Default_ranged_hashENS_17_Hashtable_traitsILb0ELb0ELb1EEEEC5Ev,comdat
	.align 2
	.weak	_ZNSt8__detail15_Hashtable_baseIiSt4pairIKicENS_10_Select1stESt8equal_toIiESt4hashIiENS_18_Mod_range_hashingENS_20_Default_ranged_hashENS_17_Hashtable_traitsILb0ELb0ELb1EEEEC2Ev
	.type	_ZNSt8__detail15_Hashtable_baseIiSt4pairIKicENS_10_Select1stESt8equal_toIiESt4hashIiENS_18_Mod_range_hashingENS_20_Default_ranged_hashENS_17_Hashtable_traitsILb0ELb0ELb1EEEEC2Ev, @function
_ZNSt8__detail15_Hashtable_baseIiSt4pairIKicENS_10_Select1stESt8equal_toIiESt4hashIiENS_18_Mod_range_hashingENS_20_Default_ranged_hashENS_17_Hashtable_traitsILb0ELb0ELb1EEEEC2Ev:
.LFB3663:
	.cfi_startproc
	endbr64
	pushq	%rbp
	.cfi_def_cfa_offset 16
	.cfi_offset 6, -16
	movq	%rsp, %rbp
	.cfi_def_cfa_register 6
	subq	$16, %rsp
	movq	%rdi, -8(%rbp)
	movq	-8(%rbp), %rax
	movq	%rax, %rdi
	call	_ZNSt8__detail15_Hash_code_baseIiSt4pairIKicENS_10_Select1stESt4hashIiENS_18_Mod_range_hashingENS_20_Default_ranged_hashELb0EEC2Ev
	movq	-8(%rbp), %rax
	movq	%rax, %rdi
	call	_ZNSt8__detail21_Hashtable_ebo_helperILi0ESt8equal_toIiELb1EEC2Ev
	nop
	leave
	.cfi_def_cfa 7, 8
	ret
	.cfi_endproc
.LFE3663:
	.size	_ZNSt8__detail15_Hashtable_baseIiSt4pairIKicENS_10_Select1stESt8equal_toIiESt4hashIiENS_18_Mod_range_hashingENS_20_Default_ranged_hashENS_17_Hashtable_traitsILb0ELb0ELb1EEEEC2Ev, .-_ZNSt8__detail15_Hashtable_baseIiSt4pairIKicENS_10_Select1stESt8equal_toIiESt4hashIiENS_18_Mod_range_hashingENS_20_Default_ranged_hashENS_17_Hashtable_traitsILb0ELb0ELb1EEEEC2Ev
	.weak	_ZNSt8__detail15_Hashtable_baseIiSt4pairIKicENS_10_Select1stESt8equal_toIiESt4hashIiENS_18_Mod_range_hashingENS_20_Default_ranged_hashENS_17_Hashtable_traitsILb0ELb0ELb1EEEEC1Ev
	.set	_ZNSt8__detail15_Hashtable_baseIiSt4pairIKicENS_10_Select1stESt8equal_toIiESt4hashIiENS_18_Mod_range_hashingENS_20_Default_ranged_hashENS_17_Hashtable_traitsILb0ELb0ELb1EEEEC1Ev,_ZNSt8__detail15_Hashtable_baseIiSt4pairIKicENS_10_Select1stESt8equal_toIiESt4hashIiENS_18_Mod_range_hashingENS_20_Default_ranged_hashENS_17_Hashtable_traitsILb0ELb0ELb1EEEEC2Ev
	.section	.text._ZNSt8__detail21_Hashtable_ebo_helperILi0ESaINS_10_Hash_nodeISt4pairIKicELb0EEEELb1EED2Ev,"axG",@progbits,_ZNSt8__detail21_Hashtable_ebo_helperILi0ESaINS_10_Hash_nodeISt4pairIKicELb0EEEELb1EED5Ev,comdat
	.align 2
	.weak	_ZNSt8__detail21_Hashtable_ebo_helperILi0ESaINS_10_Hash_nodeISt4pairIKicELb0EEEELb1EED2Ev
	.type	_ZNSt8__detail21_Hashtable_ebo_helperILi0ESaINS_10_Hash_nodeISt4pairIKicELb0EEEELb1EED2Ev, @function
_ZNSt8__detail21_Hashtable_ebo_helperILi0ESaINS_10_Hash_nodeISt4pairIKicELb0EEEELb1EED2Ev:
.LFB3667:
	.cfi_startproc
	endbr64
	pushq	%rbp
	.cfi_def_cfa_offset 16
	.cfi_offset 6, -16
	movq	%rsp, %rbp
	.cfi_def_cfa_register 6
	subq	$16, %rsp
	movq	%rdi, -8(%rbp)
	movq	-8(%rbp), %rax
	movq	%rax, %rdi
	call	_ZNSaINSt8__detail10_Hash_nodeISt4pairIKicELb0EEEED2Ev
	nop
	leave
	.cfi_def_cfa 7, 8
	ret
	.cfi_endproc
.LFE3667:
	.size	_ZNSt8__detail21_Hashtable_ebo_helperILi0ESaINS_10_Hash_nodeISt4pairIKicELb0EEEELb1EED2Ev, .-_ZNSt8__detail21_Hashtable_ebo_helperILi0ESaINS_10_Hash_nodeISt4pairIKicELb0EEEELb1EED2Ev
	.weak	_ZNSt8__detail21_Hashtable_ebo_helperILi0ESaINS_10_Hash_nodeISt4pairIKicELb0EEEELb1EED1Ev
	.set	_ZNSt8__detail21_Hashtable_ebo_helperILi0ESaINS_10_Hash_nodeISt4pairIKicELb0EEEELb1EED1Ev,_ZNSt8__detail21_Hashtable_ebo_helperILi0ESaINS_10_Hash_nodeISt4pairIKicELb0EEEELb1EED2Ev
	.section	.text._ZNSt8__detail16_Hashtable_allocISaINS_10_Hash_nodeISt4pairIKicELb0EEEEEC2Ev,"axG",@progbits,_ZNSt8__detail16_Hashtable_allocISaINS_10_Hash_nodeISt4pairIKicELb0EEEEEC5Ev,comdat
	.align 2
	.weak	_ZNSt8__detail16_Hashtable_allocISaINS_10_Hash_nodeISt4pairIKicELb0EEEEEC2Ev
	.type	_ZNSt8__detail16_Hashtable_allocISaINS_10_Hash_nodeISt4pairIKicELb0EEEEEC2Ev, @function
_ZNSt8__detail16_Hashtable_allocISaINS_10_Hash_nodeISt4pairIKicELb0EEEEEC2Ev:
.LFB3669:
	.cfi_startproc
	endbr64
	pushq	%rbp
	.cfi_def_cfa_offset 16
	.cfi_offset 6, -16
	movq	%rsp, %rbp
	.cfi_def_cfa_register 6
	subq	$16, %rsp
	movq	%rdi, -8(%rbp)
	movq	-8(%rbp), %rax
	movq	%rax, %rdi
	call	_ZNSt8__detail21_Hashtable_ebo_helperILi0ESaINS_10_Hash_nodeISt4pairIKicELb0EEEELb1EEC2Ev
	nop
	leave
	.cfi_def_cfa 7, 8
	ret
	.cfi_endproc
.LFE3669:
	.size	_ZNSt8__detail16_Hashtable_allocISaINS_10_Hash_nodeISt4pairIKicELb0EEEEEC2Ev, .-_ZNSt8__detail16_Hashtable_allocISaINS_10_Hash_nodeISt4pairIKicELb0EEEEEC2Ev
	.weak	_ZNSt8__detail16_Hashtable_allocISaINS_10_Hash_nodeISt4pairIKicELb0EEEEEC1Ev
	.set	_ZNSt8__detail16_Hashtable_allocISaINS_10_Hash_nodeISt4pairIKicELb0EEEEEC1Ev,_ZNSt8__detail16_Hashtable_allocISaINS_10_Hash_nodeISt4pairIKicELb0EEEEEC2Ev
	.section	.text._ZNSt8__detail16_Hashtable_allocISaINS_10_Hash_nodeISt4pairIKicELb0EEEEED2Ev,"axG",@progbits,_ZNSt8__detail16_Hashtable_allocISaINS_10_Hash_nodeISt4pairIKicELb0EEEEED5Ev,comdat
	.align 2
	.weak	_ZNSt8__detail16_Hashtable_allocISaINS_10_Hash_nodeISt4pairIKicELb0EEEEED2Ev
	.type	_ZNSt8__detail16_Hashtable_allocISaINS_10_Hash_nodeISt4pairIKicELb0EEEEED2Ev, @function
_ZNSt8__detail16_Hashtable_allocISaINS_10_Hash_nodeISt4pairIKicELb0EEEEED2Ev:
.LFB3672:
	.cfi_startproc
	endbr64
	pushq	%rbp
	.cfi_def_cfa_offset 16
	.cfi_offset 6, -16
	movq	%rsp, %rbp
	.cfi_def_cfa_register 6
	subq	$16, %rsp
	movq	%rdi, -8(%rbp)
	movq	-8(%rbp), %rax
	movq	%rax, %rdi
	call	_ZNSt8__detail21_Hashtable_ebo_helperILi0ESaINS_10_Hash_nodeISt4pairIKicELb0EEEELb1EED2Ev
	nop
	leave
	.cfi_def_cfa 7, 8
	ret
	.cfi_endproc
.LFE3672:
	.size	_ZNSt8__detail16_Hashtable_allocISaINS_10_Hash_nodeISt4pairIKicELb0EEEEED2Ev, .-_ZNSt8__detail16_Hashtable_allocISaINS_10_Hash_nodeISt4pairIKicELb0EEEEED2Ev
	.weak	_ZNSt8__detail16_Hashtable_allocISaINS_10_Hash_nodeISt4pairIKicELb0EEEEED1Ev
	.set	_ZNSt8__detail16_Hashtable_allocISaINS_10_Hash_nodeISt4pairIKicELb0EEEEED1Ev,_ZNSt8__detail16_Hashtable_allocISaINS_10_Hash_nodeISt4pairIKicELb0EEEEED2Ev
	.section	.text._ZNSt10_HashtableIiSt4pairIKicESaIS2_ENSt8__detail10_Select1stESt8equal_toIiESt4hashIiENS4_18_Mod_range_hashingENS4_20_Default_ranged_hashENS4_20_Prime_rehash_policyENS4_17_Hashtable_traitsILb0ELb0ELb1EEEEC2Ev,"axG",@progbits,_ZNSt10_HashtableIiSt4pairIKicESaIS2_ENSt8__detail10_Select1stESt8equal_toIiESt4hashIiENS4_18_Mod_range_hashingENS4_20_Default_ranged_hashENS4_20_Prime_rehash_policyENS4_17_Hashtable_traitsILb0ELb0ELb1EEEEC5Ev,comdat
	.align 2
	.weak	_ZNSt10_HashtableIiSt4pairIKicESaIS2_ENSt8__detail10_Select1stESt8equal_toIiESt4hashIiENS4_18_Mod_range_hashingENS4_20_Default_ranged_hashENS4_20_Prime_rehash_policyENS4_17_Hashtable_traitsILb0ELb0ELb1EEEEC2Ev
	.type	_ZNSt10_HashtableIiSt4pairIKicESaIS2_ENSt8__detail10_Select1stESt8equal_toIiESt4hashIiENS4_18_Mod_range_hashingENS4_20_Default_ranged_hashENS4_20_Prime_rehash_policyENS4_17_Hashtable_traitsILb0ELb0ELb1EEEEC2Ev, @function
_ZNSt10_HashtableIiSt4pairIKicESaIS2_ENSt8__detail10_Select1stESt8equal_toIiESt4hashIiENS4_18_Mod_range_hashingENS4_20_Default_ranged_hashENS4_20_Prime_rehash_policyENS4_17_Hashtable_traitsILb0ELb0ELb1EEEEC2Ev:
.LFB3674:
	.cfi_startproc
	endbr64
	pushq	%rbp
	.cfi_def_cfa_offset 16
	.cfi_offset 6, -16
	movq	%rsp, %rbp
	.cfi_def_cfa_register 6
	subq	$16, %rsp
	movq	%rdi, -8(%rbp)
	movq	-8(%rbp), %rax
	movq	%rax, %rdi
	call	_ZNSt8__detail15_Hashtable_baseIiSt4pairIKicENS_10_Select1stESt8equal_toIiESt4hashIiENS_18_Mod_range_hashingENS_20_Default_ranged_hashENS_17_Hashtable_traitsILb0ELb0ELb1EEEEC2Ev
	movq	-8(%rbp), %rax
	movq	%rax, %rdi
	call	_ZNSt8__detail16_Hashtable_allocISaINS_10_Hash_nodeISt4pairIKicELb0EEEEEC2Ev
	movq	-8(%rbp), %rax
	leaq	48(%rax), %rdx
	movq	-8(%rbp), %rax
	movq	%rdx, (%rax)
	movq	-8(%rbp), %rax
	movq	$1, 8(%rax)
	movq	-8(%rbp), %rax
	addq	$16, %rax
	movq	%rax, %rdi
	call	_ZNSt8__detail15_Hash_node_baseC1Ev
	movq	-8(%rbp), %rax
	movq	$0, 24(%rax)
	movq	-8(%rbp), %rax
	leaq	32(%rax), %rdx
	movl	.LC3(%rip), %eax
	movd	%eax, %xmm0
	movq	%rdx, %rdi
	call	_ZNSt8__detail20_Prime_rehash_policyC1Ef
	movq	-8(%rbp), %rax
	movq	$0, 48(%rax)
	nop
	leave
	.cfi_def_cfa 7, 8
	ret
	.cfi_endproc
.LFE3674:
	.size	_ZNSt10_HashtableIiSt4pairIKicESaIS2_ENSt8__detail10_Select1stESt8equal_toIiESt4hashIiENS4_18_Mod_range_hashingENS4_20_Default_ranged_hashENS4_20_Prime_rehash_policyENS4_17_Hashtable_traitsILb0ELb0ELb1EEEEC2Ev, .-_ZNSt10_HashtableIiSt4pairIKicESaIS2_ENSt8__detail10_Select1stESt8equal_toIiESt4hashIiENS4_18_Mod_range_hashingENS4_20_Default_ranged_hashENS4_20_Prime_rehash_policyENS4_17_Hashtable_traitsILb0ELb0ELb1EEEEC2Ev
	.weak	_ZNSt10_HashtableIiSt4pairIKicESaIS2_ENSt8__detail10_Select1stESt8equal_toIiESt4hashIiENS4_18_Mod_range_hashingENS4_20_Default_ranged_hashENS4_20_Prime_rehash_policyENS4_17_Hashtable_traitsILb0ELb0ELb1EEEEC1Ev
	.set	_ZNSt10_HashtableIiSt4pairIKicESaIS2_ENSt8__detail10_Select1stESt8equal_toIiESt4hashIiENS4_18_Mod_range_hashingENS4_20_Default_ranged_hashENS4_20_Prime_rehash_policyENS4_17_Hashtable_traitsILb0ELb0ELb1EEEEC1Ev,_ZNSt10_HashtableIiSt4pairIKicESaIS2_ENSt8__detail10_Select1stESt8equal_toIiESt4hashIiENS4_18_Mod_range_hashingENS4_20_Default_ranged_hashENS4_20_Prime_rehash_policyENS4_17_Hashtable_traitsILb0ELb0ELb1EEEEC2Ev
	.section	.text._ZNSt13unordered_mapIicSt4hashIiESt8equal_toIiESaISt4pairIKicEEEC2Ev,"axG",@progbits,_ZNSt13unordered_mapIicSt4hashIiESt8equal_toIiESaISt4pairIKicEEEC5Ev,comdat
	.align 2
	.weak	_ZNSt13unordered_mapIicSt4hashIiESt8equal_toIiESaISt4pairIKicEEEC2Ev
	.type	_ZNSt13unordered_mapIicSt4hashIiESt8equal_toIiESaISt4pairIKicEEEC2Ev, @function
_ZNSt13unordered_mapIicSt4hashIiESt8equal_toIiESaISt4pairIKicEEEC2Ev:
.LFB3676:
	.cfi_startproc
	endbr64
	pushq	%rbp
	.cfi_def_cfa_offset 16
	.cfi_offset 6, -16
	movq	%rsp, %rbp
	.cfi_def_cfa_register 6
	subq	$16, %rsp
	movq	%rdi, -8(%rbp)
	movq	-8(%rbp), %rax
	movq	%rax, %rdi
	call	_ZNSt10_HashtableIiSt4pairIKicESaIS2_ENSt8__detail10_Select1stESt8equal_toIiESt4hashIiENS4_18_Mod_range_hashingENS4_20_Default_ranged_hashENS4_20_Prime_rehash_policyENS4_17_Hashtable_traitsILb0ELb0ELb1EEEEC1Ev
	nop
	leave
	.cfi_def_cfa 7, 8
	ret
	.cfi_endproc
.LFE3676:
	.size	_ZNSt13unordered_mapIicSt4hashIiESt8equal_toIiESaISt4pairIKicEEEC2Ev, .-_ZNSt13unordered_mapIicSt4hashIiESt8equal_toIiESaISt4pairIKicEEEC2Ev
	.weak	_ZNSt13unordered_mapIicSt4hashIiESt8equal_toIiESaISt4pairIKicEEEC1Ev
	.set	_ZNSt13unordered_mapIicSt4hashIiESt8equal_toIiESaISt4pairIKicEEEC1Ev,_ZNSt13unordered_mapIicSt4hashIiESt8equal_toIiESaISt4pairIKicEEEC2Ev
	.section	.text._ZNSt13unordered_mapIicSt4hashIiESt8equal_toIiESaISt4pairIKicEEED2Ev,"axG",@progbits,_ZNSt13unordered_mapIicSt4hashIiESt8equal_toIiESaISt4pairIKicEEED5Ev,comdat
	.align 2
	.weak	_ZNSt13unordered_mapIicSt4hashIiESt8equal_toIiESaISt4pairIKicEEED2Ev
	.type	_ZNSt13unordered_mapIicSt4hashIiESt8equal_toIiESaISt4pairIKicEEED2Ev, @function
_ZNSt13unordered_mapIicSt4hashIiESt8equal_toIiESaISt4pairIKicEEED2Ev:
.LFB3679:
	.cfi_startproc
	endbr64
	pushq	%rbp
	.cfi_def_cfa_offset 16
	.cfi_offset 6, -16
	movq	%rsp, %rbp
	.cfi_def_cfa_register 6
	subq	$16, %rsp
	movq	%rdi, -8(%rbp)
	movq	-8(%rbp), %rax
	movq	%rax, %rdi
	call	_ZNSt10_HashtableIiSt4pairIKicESaIS2_ENSt8__detail10_Select1stESt8equal_toIiESt4hashIiENS4_18_Mod_range_hashingENS4_20_Default_ranged_hashENS4_20_Prime_rehash_policyENS4_17_Hashtable_traitsILb0ELb0ELb1EEEED1Ev
	nop
	leave
	.cfi_def_cfa 7, 8
	ret
	.cfi_endproc
.LFE3679:
	.size	_ZNSt13unordered_mapIicSt4hashIiESt8equal_toIiESaISt4pairIKicEEED2Ev, .-_ZNSt13unordered_mapIicSt4hashIiESt8equal_toIiESaISt4pairIKicEEED2Ev
	.weak	_ZNSt13unordered_mapIicSt4hashIiESt8equal_toIiESaISt4pairIKicEEED1Ev
	.set	_ZNSt13unordered_mapIicSt4hashIiESt8equal_toIiESaISt4pairIKicEEED1Ev,_ZNSt13unordered_mapIicSt4hashIiESt8equal_toIiESaISt4pairIKicEEED2Ev
	.section	.text._ZNSt12_Vector_baseINSt7__cxx1112basic_stringIcSt11char_traitsIcESaIcEEESaIS5_EE12_Vector_implD2Ev,"axG",@progbits,_ZNSt12_Vector_baseINSt7__cxx1112basic_stringIcSt11char_traitsIcESaIcEEESaIS5_EE12_Vector_implD5Ev,comdat
	.align 2
	.weak	_ZNSt12_Vector_baseINSt7__cxx1112basic_stringIcSt11char_traitsIcESaIcEEESaIS5_EE12_Vector_implD2Ev
	.type	_ZNSt12_Vector_baseINSt7__cxx1112basic_stringIcSt11char_traitsIcESaIcEEESaIS5_EE12_Vector_implD2Ev, @function
_ZNSt12_Vector_baseINSt7__cxx1112basic_stringIcSt11char_traitsIcESaIcEEESaIS5_EE12_Vector_implD2Ev:
.LFB3689:
	.cfi_startproc
	endbr64
	pushq	%rbp
	.cfi_def_cfa_offset 16
	.cfi_offset 6, -16
	movq	%rsp, %rbp
	.cfi_def_cfa_register 6
	subq	$16, %rsp
	movq	%rdi, -8(%rbp)
	movq	-8(%rbp), %rax
	movq	%rax, %rdi
	call	_ZNSaINSt7__cxx1112basic_stringIcSt11char_traitsIcESaIcEEEED2Ev
	nop
	leave
	.cfi_def_cfa 7, 8
	ret
	.cfi_endproc
.LFE3689:
	.size	_ZNSt12_Vector_baseINSt7__cxx1112basic_stringIcSt11char_traitsIcESaIcEEESaIS5_EE12_Vector_implD2Ev, .-_ZNSt12_Vector_baseINSt7__cxx1112basic_stringIcSt11char_traitsIcESaIcEEESaIS5_EE12_Vector_implD2Ev
	.weak	_ZNSt12_Vector_baseINSt7__cxx1112basic_stringIcSt11char_traitsIcESaIcEEESaIS5_EE12_Vector_implD1Ev
	.set	_ZNSt12_Vector_baseINSt7__cxx1112basic_stringIcSt11char_traitsIcESaIcEEESaIS5_EE12_Vector_implD1Ev,_ZNSt12_Vector_baseINSt7__cxx1112basic_stringIcSt11char_traitsIcESaIcEEESaIS5_EE12_Vector_implD2Ev
	.section	.text._ZNSt12_Vector_baseINSt7__cxx1112basic_stringIcSt11char_traitsIcESaIcEEESaIS5_EEC2Ev,"axG",@progbits,_ZNSt12_Vector_baseINSt7__cxx1112basic_stringIcSt11char_traitsIcESaIcEEESaIS5_EEC5Ev,comdat
	.align 2
	.weak	_ZNSt12_Vector_baseINSt7__cxx1112basic_stringIcSt11char_traitsIcESaIcEEESaIS5_EEC2Ev
	.type	_ZNSt12_Vector_baseINSt7__cxx1112basic_stringIcSt11char_traitsIcESaIcEEESaIS5_EEC2Ev, @function
_ZNSt12_Vector_baseINSt7__cxx1112basic_stringIcSt11char_traitsIcESaIcEEESaIS5_EEC2Ev:
.LFB3691:
	.cfi_startproc
	endbr64
	pushq	%rbp
	.cfi_def_cfa_offset 16
	.cfi_offset 6, -16
	movq	%rsp, %rbp
	.cfi_def_cfa_register 6
	subq	$16, %rsp
	movq	%rdi, -8(%rbp)
	movq	-8(%rbp), %rax
	movq	%rax, %rdi
	call	_ZNSt12_Vector_baseINSt7__cxx1112basic_stringIcSt11char_traitsIcESaIcEEESaIS5_EE12_Vector_implC1Ev
	nop
	leave
	.cfi_def_cfa 7, 8
	ret
	.cfi_endproc
.LFE3691:
	.size	_ZNSt12_Vector_baseINSt7__cxx1112basic_stringIcSt11char_traitsIcESaIcEEESaIS5_EEC2Ev, .-_ZNSt12_Vector_baseINSt7__cxx1112basic_stringIcSt11char_traitsIcESaIcEEESaIS5_EEC2Ev
	.weak	_ZNSt12_Vector_baseINSt7__cxx1112basic_stringIcSt11char_traitsIcESaIcEEESaIS5_EEC1Ev
	.set	_ZNSt12_Vector_baseINSt7__cxx1112basic_stringIcSt11char_traitsIcESaIcEEESaIS5_EEC1Ev,_ZNSt12_Vector_baseINSt7__cxx1112basic_stringIcSt11char_traitsIcESaIcEEESaIS5_EEC2Ev
	.section	.text._ZNSt6vectorINSt7__cxx1112basic_stringIcSt11char_traitsIcESaIcEEESaIS5_EEC2Ev,"axG",@progbits,_ZNSt6vectorINSt7__cxx1112basic_stringIcSt11char_traitsIcESaIcEEESaIS5_EEC5Ev,comdat
	.align 2
	.weak	_ZNSt6vectorINSt7__cxx1112basic_stringIcSt11char_traitsIcESaIcEEESaIS5_EEC2Ev
	.type	_ZNSt6vectorINSt7__cxx1112basic_stringIcSt11char_traitsIcESaIcEEESaIS5_EEC2Ev, @function
_ZNSt6vectorINSt7__cxx1112basic_stringIcSt11char_traitsIcESaIcEEESaIS5_EEC2Ev:
.LFB3693:
	.cfi_startproc
	endbr64
	pushq	%rbp
	.cfi_def_cfa_offset 16
	.cfi_offset 6, -16
	movq	%rsp, %rbp
	.cfi_def_cfa_register 6
	subq	$16, %rsp
	movq	%rdi, -8(%rbp)
	movq	-8(%rbp), %rax
	movq	%rax, %rdi
	call	_ZNSt12_Vector_baseINSt7__cxx1112basic_stringIcSt11char_traitsIcESaIcEEESaIS5_EEC2Ev
	nop
	leave
	.cfi_def_cfa 7, 8
	ret
	.cfi_endproc
.LFE3693:
	.size	_ZNSt6vectorINSt7__cxx1112basic_stringIcSt11char_traitsIcESaIcEEESaIS5_EEC2Ev, .-_ZNSt6vectorINSt7__cxx1112basic_stringIcSt11char_traitsIcESaIcEEESaIS5_EEC2Ev
	.weak	_ZNSt6vectorINSt7__cxx1112basic_stringIcSt11char_traitsIcESaIcEEESaIS5_EEC1Ev
	.set	_ZNSt6vectorINSt7__cxx1112basic_stringIcSt11char_traitsIcESaIcEEESaIS5_EEC1Ev,_ZNSt6vectorINSt7__cxx1112basic_stringIcSt11char_traitsIcESaIcEEESaIS5_EEC2Ev
	.section	.text._ZNSt8__detail15_Hash_code_baseINSt7__cxx1112basic_stringIcSt11char_traitsIcESaIcEEESt4pairIKS6_St6vectorIS6_SaIS6_EEENS_10_Select1stESt4hashIS6_ENS_18_Mod_range_hashingENS_20_Default_ranged_hashELb1EEC2Ev,"axG",@progbits,_ZNSt8__detail15_Hash_code_baseINSt7__cxx1112basic_stringIcSt11char_traitsIcESaIcEEESt4pairIKS6_St6vectorIS6_SaIS6_EEENS_10_Select1stESt4hashIS6_ENS_18_Mod_range_hashingENS_20_Default_ranged_hashELb1EEC5Ev,comdat
	.align 2
	.weak	_ZNSt8__detail15_Hash_code_baseINSt7__cxx1112basic_stringIcSt11char_traitsIcESaIcEEESt4pairIKS6_St6vectorIS6_SaIS6_EEENS_10_Select1stESt4hashIS6_ENS_18_Mod_range_hashingENS_20_Default_ranged_hashELb1EEC2Ev
	.type	_ZNSt8__detail15_Hash_code_baseINSt7__cxx1112basic_stringIcSt11char_traitsIcESaIcEEESt4pairIKS6_St6vectorIS6_SaIS6_EEENS_10_Select1stESt4hashIS6_ENS_18_Mod_range_hashingENS_20_Default_ranged_hashELb1EEC2Ev, @function
_ZNSt8__detail15_Hash_code_baseINSt7__cxx1112basic_stringIcSt11char_traitsIcESaIcEEESt4pairIKS6_St6vectorIS6_SaIS6_EEENS_10_Select1stESt4hashIS6_ENS_18_Mod_range_hashingENS_20_Default_ranged_hashELb1EEC2Ev:
.LFB3699:
	.cfi_startproc
	endbr64
	pushq	%rbp
	.cfi_def_cfa_offset 16
	.cfi_offset 6, -16
	movq	%rsp, %rbp
	.cfi_def_cfa_register 6
	subq	$16, %rsp
	movq	%rdi, -8(%rbp)
	movq	-8(%rbp), %rax
	movq	%rax, %rdi
	call	_ZNSt8__detail21_Hashtable_ebo_helperILi1ESt4hashINSt7__cxx1112basic_stringIcSt11char_traitsIcESaIcEEEELb1EEC2Ev
	nop
	leave
	.cfi_def_cfa 7, 8
	ret
	.cfi_endproc
.LFE3699:
	.size	_ZNSt8__detail15_Hash_code_baseINSt7__cxx1112basic_stringIcSt11char_traitsIcESaIcEEESt4pairIKS6_St6vectorIS6_SaIS6_EEENS_10_Select1stESt4hashIS6_ENS_18_Mod_range_hashingENS_20_Default_ranged_hashELb1EEC2Ev, .-_ZNSt8__detail15_Hash_code_baseINSt7__cxx1112basic_stringIcSt11char_traitsIcESaIcEEESt4pairIKS6_St6vectorIS6_SaIS6_EEENS_10_Select1stESt4hashIS6_ENS_18_Mod_range_hashingENS_20_Default_ranged_hashELb1EEC2Ev
	.weak	_ZNSt8__detail15_Hash_code_baseINSt7__cxx1112basic_stringIcSt11char_traitsIcESaIcEEESt4pairIKS6_St6vectorIS6_SaIS6_EEENS_10_Select1stESt4hashIS6_ENS_18_Mod_range_hashingENS_20_Default_ranged_hashELb1EEC1Ev
	.set	_ZNSt8__detail15_Hash_code_baseINSt7__cxx1112basic_stringIcSt11char_traitsIcESaIcEEESt4pairIKS6_St6vectorIS6_SaIS6_EEENS_10_Select1stESt4hashIS6_ENS_18_Mod_range_hashingENS_20_Default_ranged_hashELb1EEC1Ev,_ZNSt8__detail15_Hash_code_baseINSt7__cxx1112basic_stringIcSt11char_traitsIcESaIcEEESt4pairIKS6_St6vectorIS6_SaIS6_EEENS_10_Select1stESt4hashIS6_ENS_18_Mod_range_hashingENS_20_Default_ranged_hashELb1EEC2Ev
	.section	.text._ZNSt8__detail15_Hashtable_baseINSt7__cxx1112basic_stringIcSt11char_traitsIcESaIcEEESt4pairIKS6_St6vectorIS6_SaIS6_EEENS_10_Select1stESt8equal_toIS6_ESt4hashIS6_ENS_18_Mod_range_hashingENS_20_Default_ranged_hashENS_17_Hashtable_traitsILb1ELb0ELb1EEEEC2Ev,"axG",@progbits,_ZNSt8__detail15_Hashtable_baseINSt7__cxx1112basic_stringIcSt11char_traitsIcESaIcEEESt4pairIKS6_St6vectorIS6_SaIS6_EEENS_10_Select1stESt8equal_toIS6_ESt4hashIS6_ENS_18_Mod_range_hashingENS_20_Default_ranged_hashENS_17_Hashtable_traitsILb1ELb0ELb1EEEEC5Ev,comdat
	.align 2
	.weak	_ZNSt8__detail15_Hashtable_baseINSt7__cxx1112basic_stringIcSt11char_traitsIcESaIcEEESt4pairIKS6_St6vectorIS6_SaIS6_EEENS_10_Select1stESt8equal_toIS6_ESt4hashIS6_ENS_18_Mod_range_hashingENS_20_Default_ranged_hashENS_17_Hashtable_traitsILb1ELb0ELb1EEEEC2Ev
	.type	_ZNSt8__detail15_Hashtable_baseINSt7__cxx1112basic_stringIcSt11char_traitsIcESaIcEEESt4pairIKS6_St6vectorIS6_SaIS6_EEENS_10_Select1stESt8equal_toIS6_ESt4hashIS6_ENS_18_Mod_range_hashingENS_20_Default_ranged_hashENS_17_Hashtable_traitsILb1ELb0ELb1EEEEC2Ev, @function
_ZNSt8__detail15_Hashtable_baseINSt7__cxx1112basic_stringIcSt11char_traitsIcESaIcEEESt4pairIKS6_St6vectorIS6_SaIS6_EEENS_10_Select1stESt8equal_toIS6_ESt4hashIS6_ENS_18_Mod_range_hashingENS_20_Default_ranged_hashENS_17_Hashtable_traitsILb1ELb0ELb1EEEEC2Ev:
.LFB3701:
	.cfi_startproc
	endbr64
	pushq	%rbp
	.cfi_def_cfa_offset 16
	.cfi_offset 6, -16
	movq	%rsp, %rbp
	.cfi_def_cfa_register 6
	subq	$16, %rsp
	movq	%rdi, -8(%rbp)
	movq	-8(%rbp), %rax
	movq	%rax, %rdi
	call	_ZNSt8__detail15_Hash_code_baseINSt7__cxx1112basic_stringIcSt11char_traitsIcESaIcEEESt4pairIKS6_St6vectorIS6_SaIS6_EEENS_10_Select1stESt4hashIS6_ENS_18_Mod_range_hashingENS_20_Default_ranged_hashELb1EEC2Ev
	movq	-8(%rbp), %rax
	movq	%rax, %rdi
	call	_ZNSt8__detail21_Hashtable_ebo_helperILi0ESt8equal_toINSt7__cxx1112basic_stringIcSt11char_traitsIcESaIcEEEELb1EEC2Ev
	nop
	leave
	.cfi_def_cfa 7, 8
	ret
	.cfi_endproc
.LFE3701:
	.size	_ZNSt8__detail15_Hashtable_baseINSt7__cxx1112basic_stringIcSt11char_traitsIcESaIcEEESt4pairIKS6_St6vectorIS6_SaIS6_EEENS_10_Select1stESt8equal_toIS6_ESt4hashIS6_ENS_18_Mod_range_hashingENS_20_Default_ranged_hashENS_17_Hashtable_traitsILb1ELb0ELb1EEEEC2Ev, .-_ZNSt8__detail15_Hashtable_baseINSt7__cxx1112basic_stringIcSt11char_traitsIcESaIcEEESt4pairIKS6_St6vectorIS6_SaIS6_EEENS_10_Select1stESt8equal_toIS6_ESt4hashIS6_ENS_18_Mod_range_hashingENS_20_Default_ranged_hashENS_17_Hashtable_traitsILb1ELb0ELb1EEEEC2Ev
	.weak	_ZNSt8__detail15_Hashtable_baseINSt7__cxx1112basic_stringIcSt11char_traitsIcESaIcEEESt4pairIKS6_St6vectorIS6_SaIS6_EEENS_10_Select1stESt8equal_toIS6_ESt4hashIS6_ENS_18_Mod_range_hashingENS_20_Default_ranged_hashENS_17_Hashtable_traitsILb1ELb0ELb1EEEEC1Ev
	.set	_ZNSt8__detail15_Hashtable_baseINSt7__cxx1112basic_stringIcSt11char_traitsIcESaIcEEESt4pairIKS6_St6vectorIS6_SaIS6_EEENS_10_Select1stESt8equal_toIS6_ESt4hashIS6_ENS_18_Mod_range_hashingENS_20_Default_ranged_hashENS_17_Hashtable_traitsILb1ELb0ELb1EEEEC1Ev,_ZNSt8__detail15_Hashtable_baseINSt7__cxx1112basic_stringIcSt11char_traitsIcESaIcEEESt4pairIKS6_St6vectorIS6_SaIS6_EEENS_10_Select1stESt8equal_toIS6_ESt4hashIS6_ENS_18_Mod_range_hashingENS_20_Default_ranged_hashENS_17_Hashtable_traitsILb1ELb0ELb1EEEEC2Ev
	.section	.text._ZNSt8__detail21_Hashtable_ebo_helperILi0ESaINS_10_Hash_nodeISt4pairIKNSt7__cxx1112basic_stringIcSt11char_traitsIcESaIcEEESt6vectorIS8_SaIS8_EEELb1EEEELb1EED2Ev,"axG",@progbits,_ZNSt8__detail21_Hashtable_ebo_helperILi0ESaINS_10_Hash_nodeISt4pairIKNSt7__cxx1112basic_stringIcSt11char_traitsIcESaIcEEESt6vectorIS8_SaIS8_EEELb1EEEELb1EED5Ev,comdat
	.align 2
	.weak	_ZNSt8__detail21_Hashtable_ebo_helperILi0ESaINS_10_Hash_nodeISt4pairIKNSt7__cxx1112basic_stringIcSt11char_traitsIcESaIcEEESt6vectorIS8_SaIS8_EEELb1EEEELb1EED2Ev
	.type	_ZNSt8__detail21_Hashtable_ebo_helperILi0ESaINS_10_Hash_nodeISt4pairIKNSt7__cxx1112basic_stringIcSt11char_traitsIcESaIcEEESt6vectorIS8_SaIS8_EEELb1EEEELb1EED2Ev, @function
_ZNSt8__detail21_Hashtable_ebo_helperILi0ESaINS_10_Hash_nodeISt4pairIKNSt7__cxx1112basic_stringIcSt11char_traitsIcESaIcEEESt6vectorIS8_SaIS8_EEELb1EEEELb1EED2Ev:
.LFB3705:
	.cfi_startproc
	endbr64
	pushq	%rbp
	.cfi_def_cfa_offset 16
	.cfi_offset 6, -16
	movq	%rsp, %rbp
	.cfi_def_cfa_register 6
	subq	$16, %rsp
	movq	%rdi, -8(%rbp)
	movq	-8(%rbp), %rax
	movq	%rax, %rdi
	call	_ZNSaINSt8__detail10_Hash_nodeISt4pairIKNSt7__cxx1112basic_stringIcSt11char_traitsIcESaIcEEESt6vectorIS7_SaIS7_EEELb1EEEED2Ev
	nop
	leave
	.cfi_def_cfa 7, 8
	ret
	.cfi_endproc
.LFE3705:
	.size	_ZNSt8__detail21_Hashtable_ebo_helperILi0ESaINS_10_Hash_nodeISt4pairIKNSt7__cxx1112basic_stringIcSt11char_traitsIcESaIcEEESt6vectorIS8_SaIS8_EEELb1EEEELb1EED2Ev, .-_ZNSt8__detail21_Hashtable_ebo_helperILi0ESaINS_10_Hash_nodeISt4pairIKNSt7__cxx1112basic_stringIcSt11char_traitsIcESaIcEEESt6vectorIS8_SaIS8_EEELb1EEEELb1EED2Ev
	.weak	_ZNSt8__detail21_Hashtable_ebo_helperILi0ESaINS_10_Hash_nodeISt4pairIKNSt7__cxx1112basic_stringIcSt11char_traitsIcESaIcEEESt6vectorIS8_SaIS8_EEELb1EEEELb1EED1Ev
	.set	_ZNSt8__detail21_Hashtable_ebo_helperILi0ESaINS_10_Hash_nodeISt4pairIKNSt7__cxx1112basic_stringIcSt11char_traitsIcESaIcEEESt6vectorIS8_SaIS8_EEELb1EEEELb1EED1Ev,_ZNSt8__detail21_Hashtable_ebo_helperILi0ESaINS_10_Hash_nodeISt4pairIKNSt7__cxx1112basic_stringIcSt11char_traitsIcESaIcEEESt6vectorIS8_SaIS8_EEELb1EEEELb1EED2Ev
	.section	.text._ZNSt8__detail16_Hashtable_allocISaINS_10_Hash_nodeISt4pairIKNSt7__cxx1112basic_stringIcSt11char_traitsIcESaIcEEESt6vectorIS8_SaIS8_EEELb1EEEEEC2Ev,"axG",@progbits,_ZNSt8__detail16_Hashtable_allocISaINS_10_Hash_nodeISt4pairIKNSt7__cxx1112basic_stringIcSt11char_traitsIcESaIcEEESt6vectorIS8_SaIS8_EEELb1EEEEEC5Ev,comdat
	.align 2
	.weak	_ZNSt8__detail16_Hashtable_allocISaINS_10_Hash_nodeISt4pairIKNSt7__cxx1112basic_stringIcSt11char_traitsIcESaIcEEESt6vectorIS8_SaIS8_EEELb1EEEEEC2Ev
	.type	_ZNSt8__detail16_Hashtable_allocISaINS_10_Hash_nodeISt4pairIKNSt7__cxx1112basic_stringIcSt11char_traitsIcESaIcEEESt6vectorIS8_SaIS8_EEELb1EEEEEC2Ev, @function
_ZNSt8__detail16_Hashtable_allocISaINS_10_Hash_nodeISt4pairIKNSt7__cxx1112basic_stringIcSt11char_traitsIcESaIcEEESt6vectorIS8_SaIS8_EEELb1EEEEEC2Ev:
.LFB3707:
	.cfi_startproc
	endbr64
	pushq	%rbp
	.cfi_def_cfa_offset 16
	.cfi_offset 6, -16
	movq	%rsp, %rbp
	.cfi_def_cfa_register 6
	subq	$16, %rsp
	movq	%rdi, -8(%rbp)
	movq	-8(%rbp), %rax
	movq	%rax, %rdi
	call	_ZNSt8__detail21_Hashtable_ebo_helperILi0ESaINS_10_Hash_nodeISt4pairIKNSt7__cxx1112basic_stringIcSt11char_traitsIcESaIcEEESt6vectorIS8_SaIS8_EEELb1EEEELb1EEC2Ev
	nop
	leave
	.cfi_def_cfa 7, 8
	ret
	.cfi_endproc
.LFE3707:
	.size	_ZNSt8__detail16_Hashtable_allocISaINS_10_Hash_nodeISt4pairIKNSt7__cxx1112basic_stringIcSt11char_traitsIcESaIcEEESt6vectorIS8_SaIS8_EEELb1EEEEEC2Ev, .-_ZNSt8__detail16_Hashtable_allocISaINS_10_Hash_nodeISt4pairIKNSt7__cxx1112basic_stringIcSt11char_traitsIcESaIcEEESt6vectorIS8_SaIS8_EEELb1EEEEEC2Ev
	.weak	_ZNSt8__detail16_Hashtable_allocISaINS_10_Hash_nodeISt4pairIKNSt7__cxx1112basic_stringIcSt11char_traitsIcESaIcEEESt6vectorIS8_SaIS8_EEELb1EEEEEC1Ev
	.set	_ZNSt8__detail16_Hashtable_allocISaINS_10_Hash_nodeISt4pairIKNSt7__cxx1112basic_stringIcSt11char_traitsIcESaIcEEESt6vectorIS8_SaIS8_EEELb1EEEEEC1Ev,_ZNSt8__detail16_Hashtable_allocISaINS_10_Hash_nodeISt4pairIKNSt7__cxx1112basic_stringIcSt11char_traitsIcESaIcEEESt6vectorIS8_SaIS8_EEELb1EEEEEC2Ev
	.section	.text._ZNSt8__detail16_Hashtable_allocISaINS_10_Hash_nodeISt4pairIKNSt7__cxx1112basic_stringIcSt11char_traitsIcESaIcEEESt6vectorIS8_SaIS8_EEELb1EEEEED2Ev,"axG",@progbits,_ZNSt8__detail16_Hashtable_allocISaINS_10_Hash_nodeISt4pairIKNSt7__cxx1112basic_stringIcSt11char_traitsIcESaIcEEESt6vectorIS8_SaIS8_EEELb1EEEEED5Ev,comdat
	.align 2
	.weak	_ZNSt8__detail16_Hashtable_allocISaINS_10_Hash_nodeISt4pairIKNSt7__cxx1112basic_stringIcSt11char_traitsIcESaIcEEESt6vectorIS8_SaIS8_EEELb1EEEEED2Ev
	.type	_ZNSt8__detail16_Hashtable_allocISaINS_10_Hash_nodeISt4pairIKNSt7__cxx1112basic_stringIcSt11char_traitsIcESaIcEEESt6vectorIS8_SaIS8_EEELb1EEEEED2Ev, @function
_ZNSt8__detail16_Hashtable_allocISaINS_10_Hash_nodeISt4pairIKNSt7__cxx1112basic_stringIcSt11char_traitsIcESaIcEEESt6vectorIS8_SaIS8_EEELb1EEEEED2Ev:
.LFB3710:
	.cfi_startproc
	endbr64
	pushq	%rbp
	.cfi_def_cfa_offset 16
	.cfi_offset 6, -16
	movq	%rsp, %rbp
	.cfi_def_cfa_register 6
	subq	$16, %rsp
	movq	%rdi, -8(%rbp)
	movq	-8(%rbp), %rax
	movq	%rax, %rdi
	call	_ZNSt8__detail21_Hashtable_ebo_helperILi0ESaINS_10_Hash_nodeISt4pairIKNSt7__cxx1112basic_stringIcSt11char_traitsIcESaIcEEESt6vectorIS8_SaIS8_EEELb1EEEELb1EED2Ev
	nop
	leave
	.cfi_def_cfa 7, 8
	ret
	.cfi_endproc
.LFE3710:
	.size	_ZNSt8__detail16_Hashtable_allocISaINS_10_Hash_nodeISt4pairIKNSt7__cxx1112basic_stringIcSt11char_traitsIcESaIcEEESt6vectorIS8_SaIS8_EEELb1EEEEED2Ev, .-_ZNSt8__detail16_Hashtable_allocISaINS_10_Hash_nodeISt4pairIKNSt7__cxx1112basic_stringIcSt11char_traitsIcESaIcEEESt6vectorIS8_SaIS8_EEELb1EEEEED2Ev
	.weak	_ZNSt8__detail16_Hashtable_allocISaINS_10_Hash_nodeISt4pairIKNSt7__cxx1112basic_stringIcSt11char_traitsIcESaIcEEESt6vectorIS8_SaIS8_EEELb1EEEEED1Ev
	.set	_ZNSt8__detail16_Hashtable_allocISaINS_10_Hash_nodeISt4pairIKNSt7__cxx1112basic_stringIcSt11char_traitsIcESaIcEEESt6vectorIS8_SaIS8_EEELb1EEEEED1Ev,_ZNSt8__detail16_Hashtable_allocISaINS_10_Hash_nodeISt4pairIKNSt7__cxx1112basic_stringIcSt11char_traitsIcESaIcEEESt6vectorIS8_SaIS8_EEELb1EEEEED2Ev
	.section	.text._ZNSt10_HashtableINSt7__cxx1112basic_stringIcSt11char_traitsIcESaIcEEESt4pairIKS5_St6vectorIS5_SaIS5_EEESaISB_ENSt8__detail10_Select1stESt8equal_toIS5_ESt4hashIS5_ENSD_18_Mod_range_hashingENSD_20_Default_ranged_hashENSD_20_Prime_rehash_policyENSD_17_Hashtable_traitsILb1ELb0ELb1EEEEC2Ev,"axG",@progbits,_ZNSt10_HashtableINSt7__cxx1112basic_stringIcSt11char_traitsIcESaIcEEESt4pairIKS5_St6vectorIS5_SaIS5_EEESaISB_ENSt8__detail10_Select1stESt8equal_toIS5_ESt4hashIS5_ENSD_18_Mod_range_hashingENSD_20_Default_ranged_hashENSD_20_Prime_rehash_policyENSD_17_Hashtable_traitsILb1ELb0ELb1EEEEC5Ev,comdat
	.align 2
	.weak	_ZNSt10_HashtableINSt7__cxx1112basic_stringIcSt11char_traitsIcESaIcEEESt4pairIKS5_St6vectorIS5_SaIS5_EEESaISB_ENSt8__detail10_Select1stESt8equal_toIS5_ESt4hashIS5_ENSD_18_Mod_range_hashingENSD_20_Default_ranged_hashENSD_20_Prime_rehash_policyENSD_17_Hashtable_traitsILb1ELb0ELb1EEEEC2Ev
	.type	_ZNSt10_HashtableINSt7__cxx1112basic_stringIcSt11char_traitsIcESaIcEEESt4pairIKS5_St6vectorIS5_SaIS5_EEESaISB_ENSt8__detail10_Select1stESt8equal_toIS5_ESt4hashIS5_ENSD_18_Mod_range_hashingENSD_20_Default_ranged_hashENSD_20_Prime_rehash_policyENSD_17_Hashtable_traitsILb1ELb0ELb1EEEEC2Ev, @function
_ZNSt10_HashtableINSt7__cxx1112basic_stringIcSt11char_traitsIcESaIcEEESt4pairIKS5_St6vectorIS5_SaIS5_EEESaISB_ENSt8__detail10_Select1stESt8equal_toIS5_ESt4hashIS5_ENSD_18_Mod_range_hashingENSD_20_Default_ranged_hashENSD_20_Prime_rehash_policyENSD_17_Hashtable_traitsILb1ELb0ELb1EEEEC2Ev:
.LFB3712:
	.cfi_startproc
	endbr64
	pushq	%rbp
	.cfi_def_cfa_offset 16
	.cfi_offset 6, -16
	movq	%rsp, %rbp
	.cfi_def_cfa_register 6
	subq	$16, %rsp
	movq	%rdi, -8(%rbp)
	movq	-8(%rbp), %rax
	movq	%rax, %rdi
	call	_ZNSt8__detail15_Hashtable_baseINSt7__cxx1112basic_stringIcSt11char_traitsIcESaIcEEESt4pairIKS6_St6vectorIS6_SaIS6_EEENS_10_Select1stESt8equal_toIS6_ESt4hashIS6_ENS_18_Mod_range_hashingENS_20_Default_ranged_hashENS_17_Hashtable_traitsILb1ELb0ELb1EEEEC2Ev
	movq	-8(%rbp), %rax
	movq	%rax, %rdi
	call	_ZNSt8__detail16_Hashtable_allocISaINS_10_Hash_nodeISt4pairIKNSt7__cxx1112basic_stringIcSt11char_traitsIcESaIcEEESt6vectorIS8_SaIS8_EEELb1EEEEEC2Ev
	movq	-8(%rbp), %rax
	leaq	48(%rax), %rdx
	movq	-8(%rbp), %rax
	movq	%rdx, (%rax)
	movq	-8(%rbp), %rax
	movq	$1, 8(%rax)
	movq	-8(%rbp), %rax
	addq	$16, %rax
	movq	%rax, %rdi
	call	_ZNSt8__detail15_Hash_node_baseC1Ev
	movq	-8(%rbp), %rax
	movq	$0, 24(%rax)
	movq	-8(%rbp), %rax
	leaq	32(%rax), %rdx
	movl	.LC3(%rip), %eax
	movd	%eax, %xmm0
	movq	%rdx, %rdi
	call	_ZNSt8__detail20_Prime_rehash_policyC1Ef
	movq	-8(%rbp), %rax
	movq	$0, 48(%rax)
	nop
	leave
	.cfi_def_cfa 7, 8
	ret
	.cfi_endproc
.LFE3712:
	.size	_ZNSt10_HashtableINSt7__cxx1112basic_stringIcSt11char_traitsIcESaIcEEESt4pairIKS5_St6vectorIS5_SaIS5_EEESaISB_ENSt8__detail10_Select1stESt8equal_toIS5_ESt4hashIS5_ENSD_18_Mod_range_hashingENSD_20_Default_ranged_hashENSD_20_Prime_rehash_policyENSD_17_Hashtable_traitsILb1ELb0ELb1EEEEC2Ev, .-_ZNSt10_HashtableINSt7__cxx1112basic_stringIcSt11char_traitsIcESaIcEEESt4pairIKS5_St6vectorIS5_SaIS5_EEESaISB_ENSt8__detail10_Select1stESt8equal_toIS5_ESt4hashIS5_ENSD_18_Mod_range_hashingENSD_20_Default_ranged_hashENSD_20_Prime_rehash_policyENSD_17_Hashtable_traitsILb1ELb0ELb1EEEEC2Ev
	.weak	_ZNSt10_HashtableINSt7__cxx1112basic_stringIcSt11char_traitsIcESaIcEEESt4pairIKS5_St6vectorIS5_SaIS5_EEESaISB_ENSt8__detail10_Select1stESt8equal_toIS5_ESt4hashIS5_ENSD_18_Mod_range_hashingENSD_20_Default_ranged_hashENSD_20_Prime_rehash_policyENSD_17_Hashtable_traitsILb1ELb0ELb1EEEEC1Ev
	.set	_ZNSt10_HashtableINSt7__cxx1112basic_stringIcSt11char_traitsIcESaIcEEESt4pairIKS5_St6vectorIS5_SaIS5_EEESaISB_ENSt8__detail10_Select1stESt8equal_toIS5_ESt4hashIS5_ENSD_18_Mod_range_hashingENSD_20_Default_ranged_hashENSD_20_Prime_rehash_policyENSD_17_Hashtable_traitsILb1ELb0ELb1EEEEC1Ev,_ZNSt10_HashtableINSt7__cxx1112basic_stringIcSt11char_traitsIcESaIcEEESt4pairIKS5_St6vectorIS5_SaIS5_EEESaISB_ENSt8__detail10_Select1stESt8equal_toIS5_ESt4hashIS5_ENSD_18_Mod_range_hashingENSD_20_Default_ranged_hashENSD_20_Prime_rehash_policyENSD_17_Hashtable_traitsILb1ELb0ELb1EEEEC2Ev
	.section	.text._ZNSt13unordered_mapINSt7__cxx1112basic_stringIcSt11char_traitsIcESaIcEEESt6vectorIS5_SaIS5_EESt4hashIS5_ESt8equal_toIS5_ESaISt4pairIKS5_S8_EEEC2Ev,"axG",@progbits,_ZNSt13unordered_mapINSt7__cxx1112basic_stringIcSt11char_traitsIcESaIcEEESt6vectorIS5_SaIS5_EESt4hashIS5_ESt8equal_toIS5_ESaISt4pairIKS5_S8_EEEC5Ev,comdat
	.align 2
	.weak	_ZNSt13unordered_mapINSt7__cxx1112basic_stringIcSt11char_traitsIcESaIcEEESt6vectorIS5_SaIS5_EESt4hashIS5_ESt8equal_toIS5_ESaISt4pairIKS5_S8_EEEC2Ev
	.type	_ZNSt13unordered_mapINSt7__cxx1112basic_stringIcSt11char_traitsIcESaIcEEESt6vectorIS5_SaIS5_EESt4hashIS5_ESt8equal_toIS5_ESaISt4pairIKS5_S8_EEEC2Ev, @function
_ZNSt13unordered_mapINSt7__cxx1112basic_stringIcSt11char_traitsIcESaIcEEESt6vectorIS5_SaIS5_EESt4hashIS5_ESt8equal_toIS5_ESaISt4pairIKS5_S8_EEEC2Ev:
.LFB3714:
	.cfi_startproc
	endbr64
	pushq	%rbp
	.cfi_def_cfa_offset 16
	.cfi_offset 6, -16
	movq	%rsp, %rbp
	.cfi_def_cfa_register 6
	subq	$16, %rsp
	movq	%rdi, -8(%rbp)
	movq	-8(%rbp), %rax
	movq	%rax, %rdi
	call	_ZNSt10_HashtableINSt7__cxx1112basic_stringIcSt11char_traitsIcESaIcEEESt4pairIKS5_St6vectorIS5_SaIS5_EEESaISB_ENSt8__detail10_Select1stESt8equal_toIS5_ESt4hashIS5_ENSD_18_Mod_range_hashingENSD_20_Default_ranged_hashENSD_20_Prime_rehash_policyENSD_17_Hashtable_traitsILb1ELb0ELb1EEEEC1Ev
	nop
	leave
	.cfi_def_cfa 7, 8
	ret
	.cfi_endproc
.LFE3714:
	.size	_ZNSt13unordered_mapINSt7__cxx1112basic_stringIcSt11char_traitsIcESaIcEEESt6vectorIS5_SaIS5_EESt4hashIS5_ESt8equal_toIS5_ESaISt4pairIKS5_S8_EEEC2Ev, .-_ZNSt13unordered_mapINSt7__cxx1112basic_stringIcSt11char_traitsIcESaIcEEESt6vectorIS5_SaIS5_EESt4hashIS5_ESt8equal_toIS5_ESaISt4pairIKS5_S8_EEEC2Ev
	.weak	_ZNSt13unordered_mapINSt7__cxx1112basic_stringIcSt11char_traitsIcESaIcEEESt6vectorIS5_SaIS5_EESt4hashIS5_ESt8equal_toIS5_ESaISt4pairIKS5_S8_EEEC1Ev
	.set	_ZNSt13unordered_mapINSt7__cxx1112basic_stringIcSt11char_traitsIcESaIcEEESt6vectorIS5_SaIS5_EESt4hashIS5_ESt8equal_toIS5_ESaISt4pairIKS5_S8_EEEC1Ev,_ZNSt13unordered_mapINSt7__cxx1112basic_stringIcSt11char_traitsIcESaIcEEESt6vectorIS5_SaIS5_EESt4hashIS5_ESt8equal_toIS5_ESaISt4pairIKS5_S8_EEEC2Ev
	.section	.text._ZNSt13unordered_mapINSt7__cxx1112basic_stringIcSt11char_traitsIcESaIcEEESt6vectorIS5_SaIS5_EESt4hashIS5_ESt8equal_toIS5_ESaISt4pairIKS5_S8_EEED2Ev,"axG",@progbits,_ZNSt13unordered_mapINSt7__cxx1112basic_stringIcSt11char_traitsIcESaIcEEESt6vectorIS5_SaIS5_EESt4hashIS5_ESt8equal_toIS5_ESaISt4pairIKS5_S8_EEED5Ev,comdat
	.align 2
	.weak	_ZNSt13unordered_mapINSt7__cxx1112basic_stringIcSt11char_traitsIcESaIcEEESt6vectorIS5_SaIS5_EESt4hashIS5_ESt8equal_toIS5_ESaISt4pairIKS5_S8_EEED2Ev
	.type	_ZNSt13unordered_mapINSt7__cxx1112basic_stringIcSt11char_traitsIcESaIcEEESt6vectorIS5_SaIS5_EESt4hashIS5_ESt8equal_toIS5_ESaISt4pairIKS5_S8_EEED2Ev, @function
_ZNSt13unordered_mapINSt7__cxx1112basic_stringIcSt11char_traitsIcESaIcEEESt6vectorIS5_SaIS5_EESt4hashIS5_ESt8equal_toIS5_ESaISt4pairIKS5_S8_EEED2Ev:
.LFB3717:
	.cfi_startproc
	endbr64
	pushq	%rbp
	.cfi_def_cfa_offset 16
	.cfi_offset 6, -16
	movq	%rsp, %rbp
	.cfi_def_cfa_register 6
	subq	$16, %rsp
	movq	%rdi, -8(%rbp)
	movq	-8(%rbp), %rax
	movq	%rax, %rdi
	call	_ZNSt10_HashtableINSt7__cxx1112basic_stringIcSt11char_traitsIcESaIcEEESt4pairIKS5_St6vectorIS5_SaIS5_EEESaISB_ENSt8__detail10_Select1stESt8equal_toIS5_ESt4hashIS5_ENSD_18_Mod_range_hashingENSD_20_Default_ranged_hashENSD_20_Prime_rehash_policyENSD_17_Hashtable_traitsILb1ELb0ELb1EEEED1Ev
	nop
	leave
	.cfi_def_cfa 7, 8
	ret
	.cfi_endproc
.LFE3717:
	.size	_ZNSt13unordered_mapINSt7__cxx1112basic_stringIcSt11char_traitsIcESaIcEEESt6vectorIS5_SaIS5_EESt4hashIS5_ESt8equal_toIS5_ESaISt4pairIKS5_S8_EEED2Ev, .-_ZNSt13unordered_mapINSt7__cxx1112basic_stringIcSt11char_traitsIcESaIcEEESt6vectorIS5_SaIS5_EESt4hashIS5_ESt8equal_toIS5_ESaISt4pairIKS5_S8_EEED2Ev
	.weak	_ZNSt13unordered_mapINSt7__cxx1112basic_stringIcSt11char_traitsIcESaIcEEESt6vectorIS5_SaIS5_EESt4hashIS5_ESt8equal_toIS5_ESaISt4pairIKS5_S8_EEED1Ev
	.set	_ZNSt13unordered_mapINSt7__cxx1112basic_stringIcSt11char_traitsIcESaIcEEESt6vectorIS5_SaIS5_EESt4hashIS5_ESt8equal_toIS5_ESaISt4pairIKS5_S8_EEED1Ev,_ZNSt13unordered_mapINSt7__cxx1112basic_stringIcSt11char_traitsIcESaIcEEESt6vectorIS5_SaIS5_EESt4hashIS5_ESt8equal_toIS5_ESaISt4pairIKS5_S8_EEED2Ev
	.text
	.globl	_Z7breakerRKSt6vectorINSt7__cxx1112basic_stringIcSt11char_traitsIcESaIcEEESaIS5_EERSt13unordered_mapIS5_S7_St4hashIS5_ESt8equal_toIS5_ESaISt4pairIKS5_S7_EEEj
	.type	_Z7breakerRKSt6vectorINSt7__cxx1112basic_stringIcSt11char_traitsIcESaIcEEESaIS5_EERSt13unordered_mapIS5_S7_St4hashIS5_ESt8equal_toIS5_ESaISt4pairIKS5_S7_EEEj, @function
_Z7breakerRKSt6vectorINSt7__cxx1112basic_stringIcSt11char_traitsIcESaIcEEESaIS5_EERSt13unordered_mapIS5_S7_St4hashIS5_ESt8equal_toIS5_ESaISt4pairIKS5_S7_EEEj:
.LFB3655:
	.cfi_startproc
	.cfi_personality 0x9b,DW.ref.__gxx_personality_v0
	.cfi_lsda 0x1b,.LLSDA3655
	endbr64
	pushq	%rbp
	.cfi_def_cfa_offset 16
	.cfi_offset 6, -16
	movq	%rsp, %rbp
	.cfi_def_cfa_register 6
	pushq	%r15
	pushq	%r14
	pushq	%r13
	pushq	%r12
	pushq	%rbx
	subq	$504, %rsp
	.cfi_offset 15, -24
	.cfi_offset 14, -32
	.cfi_offset 13, -40
	.cfi_offset 12, -48
	.cfi_offset 3, -56
	movq	%rdi, -520(%rbp)
	movq	%rsi, -528(%rbp)
	movl	%edx, -532(%rbp)
	movq	%fs:40, %rax
	movq	%rax, -56(%rbp)
	xorl	%eax, %eax
	call	_ZNSt6chrono3_V212system_clock3nowEv@PLT
	movq	%rax, -504(%rbp)
	leaq	-224(%rbp), %rax
	movq	%rax, %rdi
	call	_ZNSt13unordered_mapIicSt4hashIiESt8equal_toIiESaISt4pairIKicEEEC1Ev
	leaq	-160(%rbp), %rax
	movq	%rax, %rdi
	call	_ZNSaIcEC1Ev@PLT
	leaq	-160(%rbp), %rdx
	leaq	-96(%rbp), %rax
	leaq	.LC6(%rip), %rcx
	movq	%rcx, %rsi
	movq	%rax, %rdi
.LEHB8:
	call	_ZNSt7__cxx1112basic_stringIcSt11char_traitsIcESaIcEEC1IS3_EEPKcRKS3_
.LEHE8:
	leaq	-96(%rbp), %rdx
	movq	-528(%rbp), %rax
	movq	%rdx, %rsi
	movq	%rax, %rdi
.LEHB9:
	call	_ZNSt13unordered_mapINSt7__cxx1112basic_stringIcSt11char_traitsIcESaIcEEESt6vectorIS5_SaIS5_EESt4hashIS5_ESt8equal_toIS5_ESaISt4pairIKS5_S8_EEEixEOS5_
	movq	%rax, %rdx
	movq	-520(%rbp), %rax
	movq	%rax, %rsi
	movq	%rdx, %rdi
	call	_ZNSt6vectorINSt7__cxx1112basic_stringIcSt11char_traitsIcESaIcEEESaIS5_EEaSERKS7_
.LEHE9:
	leaq	-96(%rbp), %rax
	movq	%rax, %rdi
	call	_ZNSt7__cxx1112basic_stringIcSt11char_traitsIcESaIcEED1Ev@PLT
	leaq	-160(%rbp), %rax
	movq	%rax, %rdi
	call	_ZNSaIcED1Ev@PLT
.L183:
	movb	$1, -509(%rbp)
	movq	-528(%rbp), %rax
	movq	%rax, -464(%rbp)
	movq	-464(%rbp), %rax
	movq	%rax, %rdi
	call	_ZNSt13unordered_mapINSt7__cxx1112basic_stringIcSt11char_traitsIcESaIcEEESt6vectorIS5_SaIS5_EESt4hashIS5_ESt8equal_toIS5_ESaISt4pairIKS5_S8_EEE5beginEv
	movq	%rax, -256(%rbp)
	movq	-464(%rbp), %rax
	movq	%rax, %rdi
	call	_ZNSt13unordered_mapINSt7__cxx1112basic_stringIcSt11char_traitsIcESaIcEEESt6vectorIS5_SaIS5_EESt4hashIS5_ESt8equal_toIS5_ESaISt4pairIKS5_S8_EEE3endEv
	movq	%rax, -160(%rbp)
	jmp	.L155
.L158:
	leaq	-256(%rbp), %rax
	movq	%rax, %rdi
	call	_ZNKSt8__detail14_Node_iteratorISt4pairIKNSt7__cxx1112basic_stringIcSt11char_traitsIcESaIcEEESt6vectorIS7_SaIS7_EEELb0ELb1EEdeEv
	movq	%rax, -456(%rbp)
	movq	-456(%rbp), %rax
	addq	$32, %rax
	movq	%rax, %rdi
	call	_ZNKSt6vectorINSt7__cxx1112basic_stringIcSt11char_traitsIcESaIcEEESaIS5_EE4sizeEv
	movl	-532(%rbp), %edx
	cmpq	%rdx, %rax
	seta	%al
	testb	%al, %al
	je	.L156
	movb	$0, -509(%rbp)
	jmp	.L157
.L156:
	leaq	-256(%rbp), %rax
	movq	%rax, %rdi
	call	_ZNSt8__detail14_Node_iteratorISt4pairIKNSt7__cxx1112basic_stringIcSt11char_traitsIcESaIcEEESt6vectorIS7_SaIS7_EEELb0ELb1EEppEv
.L155:
	leaq	-160(%rbp), %rdx
	leaq	-256(%rbp), %rax
	movq	%rdx, %rsi
	movq	%rax, %rdi
	call	_ZNSt8__detailneERKNS_19_Node_iterator_baseISt4pairIKNSt7__cxx1112basic_stringIcSt11char_traitsIcESaIcEEESt6vectorIS7_SaIS7_EEELb1EEESF_
	testb	%al, %al
	jne	.L158
.L157:
	cmpb	$0, -509(%rbp)
	je	.L159
	call	_ZNSt6chrono3_V212system_clock3nowEv@PLT
	movq	%rax, -288(%rbp)
	leaq	-504(%rbp), %rdx
	leaq	-288(%rbp), %rax
	movq	%rdx, %rsi
	movq	%rax, %rdi
	call	_ZNSt6chronomiINS_3_V212system_clockENS_8durationIlSt5ratioILl1ELl1000000000EEEES6_EENSt11common_typeIJT0_T1_EE4typeERKNS_10time_pointIT_S8_EERKNSC_ISD_S9_EE
	movq	%rax, -160(%rbp)
	leaq	-160(%rbp), %rdx
	leaq	-256(%rbp), %rax
	movq	%rdx, %rsi
	movq	%rax, %rdi
.LEHB10:
	call	_ZNSt6chrono8durationIdSt5ratioILl1ELl1000000EEEC1IlS1_ILl1ELl1000000000EEvEERKNS0_IT_T0_EE
.LEHE10:
	jmp	.L205
.L159:
	leaq	-352(%rbp), %rax
	movq	%rax, %rdi
	call	_ZNSt6vectorINSt7__cxx1112basic_stringIcSt11char_traitsIcESaIcEEESaIS5_EEC1Ev
	leaq	-320(%rbp), %rax
	movq	%rax, %rdi
	call	_ZNSt6vectorINSt7__cxx1112basic_stringIcSt11char_traitsIcESaIcEEESaIS5_EEC1Ev
	leaq	-160(%rbp), %rax
	movq	%rax, %rdi
	call	_ZNSt13unordered_mapINSt7__cxx1112basic_stringIcSt11char_traitsIcESaIcEEESt6vectorIS5_SaIS5_EESt4hashIS5_ESt8equal_toIS5_ESaISt4pairIKS5_S8_EEEC1Ev
	leaq	-288(%rbp), %rax
	movq	%rax, %rdi
	call	_ZNSt6vectorINSt7__cxx1112basic_stringIcSt11char_traitsIcESaIcEEESaIS5_EEC1Ev
	movq	-528(%rbp), %rax
	movq	%rax, -448(%rbp)
	movq	-448(%rbp), %rax
	movq	%rax, %rdi
	call	_ZNSt13unordered_mapINSt7__cxx1112basic_stringIcSt11char_traitsIcESaIcEEESt6vectorIS5_SaIS5_EESt4hashIS5_ESt8equal_toIS5_ESaISt4pairIKS5_S8_EEE5beginEv
	movq	%rax, -472(%rbp)
	movq	-448(%rbp), %rax
	movq	%rax, %rdi
	call	_ZNSt13unordered_mapINSt7__cxx1112basic_stringIcSt11char_traitsIcESaIcEEESt6vectorIS5_SaIS5_EESt4hashIS5_ESt8equal_toIS5_ESaISt4pairIKS5_S8_EEE3endEv
	movq	%rax, -256(%rbp)
	jmp	.L161
.L162:
	leaq	-472(%rbp), %rax
	movq	%rax, %rdi
	call	_ZNKSt8__detail14_Node_iteratorISt4pairIKNSt7__cxx1112basic_stringIcSt11char_traitsIcESaIcEEESt6vectorIS7_SaIS7_EEELb0ELb1EEdeEv
	movq	%rax, -360(%rbp)
	movq	-360(%rbp), %rdx
	leaq	-288(%rbp), %rax
	movq	%rdx, %rsi
	movq	%rax, %rdi
.LEHB11:
	call	_ZNSt6vectorINSt7__cxx1112basic_stringIcSt11char_traitsIcESaIcEEESaIS5_EE9push_backERKS5_
	leaq	-472(%rbp), %rax
	movq	%rax, %rdi
	call	_ZNSt8__detail14_Node_iteratorISt4pairIKNSt7__cxx1112basic_stringIcSt11char_traitsIcESaIcEEESt6vectorIS7_SaIS7_EEELb0ELb1EEppEv
.L161:
	leaq	-256(%rbp), %rdx
	leaq	-472(%rbp), %rax
	movq	%rdx, %rsi
	movq	%rax, %rdi
	call	_ZNSt8__detailneERKNS_19_Node_iterator_baseISt4pairIKNSt7__cxx1112basic_stringIcSt11char_traitsIcESaIcEEESt6vectorIS7_SaIS7_EEELb1EEESF_
	testb	%al, %al
	jne	.L162
	leaq	-288(%rbp), %rax
	movq	%rax, -440(%rbp)
	movq	-440(%rbp), %rax
	movq	%rax, %rdi
	call	_ZNSt6vectorINSt7__cxx1112basic_stringIcSt11char_traitsIcESaIcEEESaIS5_EE5beginEv
	movq	%rax, -496(%rbp)
	movq	-440(%rbp), %rax
	movq	%rax, %rdi
	call	_ZNSt6vectorINSt7__cxx1112basic_stringIcSt11char_traitsIcESaIcEEESaIS5_EE3endEv
	movq	%rax, -488(%rbp)
	jmp	.L163
.L174:
	leaq	-496(%rbp), %rax
	movq	%rax, %rdi
	call	_ZNK9__gnu_cxx17__normal_iteratorIPNSt7__cxx1112basic_stringIcSt11char_traitsIcESaIcEEESt6vectorIS6_SaIS6_EEEdeEv
	movq	%rax, -384(%rbp)
	movq	-384(%rbp), %rdx
	movq	-528(%rbp), %rax
	movq	%rdx, %rsi
	movq	%rax, %rdi
	call	_ZNSt13unordered_mapINSt7__cxx1112basic_stringIcSt11char_traitsIcESaIcEEESt6vectorIS5_SaIS5_EESt4hashIS5_ESt8equal_toIS5_ESaISt4pairIKS5_S8_EEEixERSE_
	movq	%rax, %rdx
	leaq	-256(%rbp), %rax
	movq	%rdx, %rsi
	movq	%rax, %rdi
	call	_ZNSt6vectorINSt7__cxx1112basic_stringIcSt11char_traitsIcESaIcEEESaIS5_EEC1ERKS7_
.LEHE11:
	leaq	-256(%rbp), %rax
	movq	%rax, %rdi
	call	_ZNKSt6vectorINSt7__cxx1112basic_stringIcSt11char_traitsIcESaIcEEESaIS5_EE4sizeEv
	movl	-532(%rbp), %edx
	cmpq	%rdx, %rax
	seta	%al
	testb	%al, %al
	je	.L164
	movq	-384(%rbp), %rax
	movq	%rax, %rdi
	call	_ZNKSt7__cxx1112basic_stringIcSt11char_traitsIcESaIcEE6lengthEv@PLT
	movl	%eax, -508(%rbp)
	movl	$0, -472(%rbp)
	jmp	.L165
.L166:
	leaq	-472(%rbp), %rdx
	leaq	-224(%rbp), %rax
	movq	%rdx, %rsi
	movq	%rax, %rdi
.LEHB12:
	call	_ZNSt13unordered_mapIicSt4hashIiESt8equal_toIiESaISt4pairIKicEEEixERS5_
	movzbl	(%rax), %eax
	movsbl	%al, %edx
	leaq	-96(%rbp), %rax
	movq	-384(%rbp), %rcx
	movq	%rcx, %rsi
	movq	%rax, %rdi
	call	_ZStplIcSt11char_traitsIcESaIcEENSt7__cxx1112basic_stringIT_T0_T1_EERKS8_S5_
.LEHE12:
	movl	$0, %r14d
	movl	$0, %r15d
	leaq	-96(%rbp), %rdx
	leaq	-160(%rbp), %rax
	movq	%rdx, %rsi
	movq	%rax, %rdi
.LEHB13:
	call	_ZNSt13unordered_mapINSt7__cxx1112basic_stringIcSt11char_traitsIcESaIcEEESt6vectorIS5_SaIS5_EESt4hashIS5_ESt8equal_toIS5_ESaISt4pairIKS5_S8_EEEixERSE_
	movq	%rax, %rdi
	movq	%r14, %rcx
	movq	%r15, %rbx
	movq	%r14, %rax
	movq	%r15, %rdx
	movq	%rdx, %rax
	movq	%rcx, %rsi
	movq	%rax, %rdx
	call	_ZNSt6vectorINSt7__cxx1112basic_stringIcSt11char_traitsIcESaIcEEESaIS5_EEaSESt16initializer_listIS5_E
.LEHE13:
	leaq	-96(%rbp), %rax
	movq	%rax, %rdi
	call	_ZNSt7__cxx1112basic_stringIcSt11char_traitsIcESaIcEED1Ev@PLT
	movl	-472(%rbp), %eax
	addl	$1, %eax
	movl	%eax, -472(%rbp)
.L165:
	movl	-472(%rbp), %eax
	cmpl	$25, %eax
	jle	.L166
	leaq	-256(%rbp), %rax
	movq	%rax, -376(%rbp)
	movq	-376(%rbp), %rax
	movq	%rax, %rdi
	call	_ZNSt6vectorINSt7__cxx1112basic_stringIcSt11char_traitsIcESaIcEEESaIS5_EE5beginEv
	movq	%rax, -480(%rbp)
	movq	-376(%rbp), %rax
	movq	%rax, %rdi
	call	_ZNSt6vectorINSt7__cxx1112basic_stringIcSt11char_traitsIcESaIcEEESaIS5_EE3endEv
	movq	%rax, -472(%rbp)
	jmp	.L167
.L170:
	leaq	-480(%rbp), %rax
	movq	%rax, %rdi
	call	_ZNK9__gnu_cxx17__normal_iteratorIPNSt7__cxx1112basic_stringIcSt11char_traitsIcESaIcEEESt6vectorIS6_SaIS6_EEEdeEv
	movq	%rax, -368(%rbp)
	movq	-368(%rbp), %rax
	movq	%rax, %rdi
	call	_ZNKSt7__cxx1112basic_stringIcSt11char_traitsIcESaIcEE6lengthEv@PLT
	movl	-508(%rbp), %edx
	movslq	%edx, %rdx
	cmpq	%rdx, %rax
	sete	%al
	testb	%al, %al
	je	.L168
	movq	-384(%rbp), %rdx
	leaq	-320(%rbp), %rax
	movq	%rdx, %rsi
	movq	%rax, %rdi
.LEHB14:
	call	_ZNSt6vectorINSt7__cxx1112basic_stringIcSt11char_traitsIcESaIcEEESaIS5_EE9push_backERKS5_
	jmp	.L169
.L168:
	movl	-508(%rbp), %eax
	addl	$1, %eax
	movslq	%eax, %rdx
	leaq	-96(%rbp), %rax
	movq	-368(%rbp), %rsi
	movq	%rdx, %rcx
	movl	$0, %edx
	movq	%rax, %rdi
	call	_ZNKSt7__cxx1112basic_stringIcSt11char_traitsIcESaIcEE6substrEmm@PLT
.LEHE14:
	leaq	-96(%rbp), %rdx
	leaq	-160(%rbp), %rax
	movq	%rdx, %rsi
	movq	%rax, %rdi
.LEHB15:
	call	_ZNSt13unordered_mapINSt7__cxx1112basic_stringIcSt11char_traitsIcESaIcEEESt6vectorIS5_SaIS5_EESt4hashIS5_ESt8equal_toIS5_ESaISt4pairIKS5_S8_EEEixEOS5_
	movq	%rax, %rdx
	movq	-368(%rbp), %rax
	movq	%rax, %rsi
	movq	%rdx, %rdi
	call	_ZNSt6vectorINSt7__cxx1112basic_stringIcSt11char_traitsIcESaIcEEESaIS5_EE9push_backERKS5_
.LEHE15:
	leaq	-96(%rbp), %rax
	movq	%rax, %rdi
	call	_ZNSt7__cxx1112basic_stringIcSt11char_traitsIcESaIcEED1Ev@PLT
.L169:
	leaq	-480(%rbp), %rax
	movq	%rax, %rdi
	call	_ZN9__gnu_cxx17__normal_iteratorIPNSt7__cxx1112basic_stringIcSt11char_traitsIcESaIcEEESt6vectorIS6_SaIS6_EEEppEv
.L167:
	leaq	-472(%rbp), %rdx
	leaq	-480(%rbp), %rax
	movq	%rdx, %rsi
	movq	%rax, %rdi
	call	_ZN9__gnu_cxxneIPNSt7__cxx1112basic_stringIcSt11char_traitsIcESaIcEEESt6vectorIS6_SaIS6_EEEEbRKNS_17__normal_iteratorIT_T0_EESG_
	testb	%al, %al
	jne	.L170
	movl	$0, -472(%rbp)
	jmp	.L171
.L173:
	leaq	-472(%rbp), %rdx
	leaq	-224(%rbp), %rax
	movq	%rdx, %rsi
	movq	%rax, %rdi
.LEHB16:
	call	_ZNSt13unordered_mapIicSt4hashIiESt8equal_toIiESaISt4pairIKicEEEixERS5_
	movzbl	(%rax), %eax
	movsbl	%al, %edx
	leaq	-96(%rbp), %rax
	movq	-384(%rbp), %rcx
	movq	%rcx, %rsi
	movq	%rax, %rdi
	call	_ZStplIcSt11char_traitsIcESaIcEENSt7__cxx1112basic_stringIT_T0_T1_EERKS8_S5_
.LEHE16:
	leaq	-96(%rbp), %rdx
	leaq	-160(%rbp), %rax
	movq	%rdx, %rsi
	movq	%rax, %rdi
.LEHB17:
	call	_ZNSt13unordered_mapINSt7__cxx1112basic_stringIcSt11char_traitsIcESaIcEEESt6vectorIS5_SaIS5_EESt4hashIS5_ESt8equal_toIS5_ESaISt4pairIKS5_S8_EEEixERSE_
	movq	%rax, %rdi
	call	_ZNKSt6vectorINSt7__cxx1112basic_stringIcSt11char_traitsIcESaIcEEESaIS5_EE5emptyEv
	testb	%al, %al
	je	.L172
	leaq	-96(%rbp), %rdx
	leaq	-160(%rbp), %rax
	movq	%rdx, %rsi
	movq	%rax, %rdi
	call	_ZNSt13unordered_mapINSt7__cxx1112basic_stringIcSt11char_traitsIcESaIcEEESt6vectorIS5_SaIS5_EESt4hashIS5_ESt8equal_toIS5_ESaISt4pairIKS5_S8_EEE5eraseERSE_
.LEHE17:
.L172:
	leaq	-96(%rbp), %rax
	movq	%rax, %rdi
	call	_ZNSt7__cxx1112basic_stringIcSt11char_traitsIcESaIcEED1Ev@PLT
	movl	-472(%rbp), %eax
	addl	$1, %eax
	movl	%eax, -472(%rbp)
.L171:
	movl	-472(%rbp), %eax
	cmpl	$25, %eax
	jle	.L173
	movq	-384(%rbp), %rdx
	leaq	-352(%rbp), %rax
	movq	%rdx, %rsi
	movq	%rax, %rdi
.LEHB18:
	call	_ZNSt6vectorINSt7__cxx1112basic_stringIcSt11char_traitsIcESaIcEEESaIS5_EE9push_backERKS5_
.LEHE18:
.L164:
	leaq	-256(%rbp), %rax
	movq	%rax, %rdi
	call	_ZNSt6vectorINSt7__cxx1112basic_stringIcSt11char_traitsIcESaIcEEESaIS5_EED1Ev
	leaq	-496(%rbp), %rax
	movq	%rax, %rdi
	call	_ZN9__gnu_cxx17__normal_iteratorIPNSt7__cxx1112basic_stringIcSt11char_traitsIcESaIcEEESt6vectorIS6_SaIS6_EEEppEv
.L163:
	leaq	-488(%rbp), %rdx
	leaq	-496(%rbp), %rax
	movq	%rdx, %rsi
	movq	%rax, %rdi
	call	_ZN9__gnu_cxxneIPNSt7__cxx1112basic_stringIcSt11char_traitsIcESaIcEEESt6vectorIS6_SaIS6_EEEEbRKNS_17__normal_iteratorIT_T0_EESG_
	testb	%al, %al
	jne	.L174
	leaq	-352(%rbp), %rax
	movq	%rax, -432(%rbp)
	movq	-432(%rbp), %rax
	movq	%rax, %rdi
	call	_ZNSt6vectorINSt7__cxx1112basic_stringIcSt11char_traitsIcESaIcEEESaIS5_EE5beginEv
	movq	%rax, -472(%rbp)
	movq	-432(%rbp), %rax
	movq	%rax, %rdi
	call	_ZNSt6vectorINSt7__cxx1112basic_stringIcSt11char_traitsIcESaIcEEESaIS5_EE3endEv
	movq	%rax, -256(%rbp)
	jmp	.L175
.L176:
	leaq	-472(%rbp), %rax
	movq	%rax, %rdi
	call	_ZNK9__gnu_cxx17__normal_iteratorIPNSt7__cxx1112basic_stringIcSt11char_traitsIcESaIcEEESt6vectorIS6_SaIS6_EEEdeEv
	movq	%rax, -392(%rbp)
	movq	-392(%rbp), %rdx
	movq	-528(%rbp), %rax
	movq	%rdx, %rsi
	movq	%rax, %rdi
.LEHB19:
	call	_ZNSt13unordered_mapINSt7__cxx1112basic_stringIcSt11char_traitsIcESaIcEEESt6vectorIS5_SaIS5_EESt4hashIS5_ESt8equal_toIS5_ESaISt4pairIKS5_S8_EEE5eraseERSE_
	leaq	-472(%rbp), %rax
	movq	%rax, %rdi
	call	_ZN9__gnu_cxx17__normal_iteratorIPNSt7__cxx1112basic_stringIcSt11char_traitsIcESaIcEEESt6vectorIS6_SaIS6_EEEppEv
.L175:
	leaq	-256(%rbp), %rdx
	leaq	-472(%rbp), %rax
	movq	%rdx, %rsi
	movq	%rax, %rdi
	call	_ZN9__gnu_cxxneIPNSt7__cxx1112basic_stringIcSt11char_traitsIcESaIcEEESt6vectorIS6_SaIS6_EEEEbRKNS_17__normal_iteratorIT_T0_EESG_
	testb	%al, %al
	jne	.L176
	leaq	-320(%rbp), %rax
	movq	%rax, -424(%rbp)
	movq	-424(%rbp), %rax
	movq	%rax, %rdi
	call	_ZNSt6vectorINSt7__cxx1112basic_stringIcSt11char_traitsIcESaIcEEESaIS5_EE5beginEv
	movq	%rax, -472(%rbp)
	movq	-424(%rbp), %rax
	movq	%rax, %rdi
	call	_ZNSt6vectorINSt7__cxx1112basic_stringIcSt11char_traitsIcESaIcEEESaIS5_EE3endEv
	movq	%rax, -256(%rbp)
	jmp	.L177
.L180:
	leaq	-472(%rbp), %rax
	movq	%rax, %rdi
	call	_ZNK9__gnu_cxx17__normal_iteratorIPNSt7__cxx1112basic_stringIcSt11char_traitsIcESaIcEEESt6vectorIS6_SaIS6_EEEdeEv
	movq	%rax, -400(%rbp)
	movq	-400(%rbp), %rdx
	leaq	-96(%rbp), %rax
	movq	%rdx, %rsi
	movq	%rax, %rdi
	call	_ZNSt7__cxx1112basic_stringIcSt11char_traitsIcESaIcEEC1ERKS4_@PLT
.LEHE19:
	leaq	-96(%rbp), %rax
	movq	%rax, %r12
	movl	$1, %r13d
	movq	-400(%rbp), %rdx
	movq	-528(%rbp), %rax
	movq	%rdx, %rsi
	movq	%rax, %rdi
.LEHB20:
	call	_ZNSt13unordered_mapINSt7__cxx1112basic_stringIcSt11char_traitsIcESaIcEEESt6vectorIS5_SaIS5_EESt4hashIS5_ESt8equal_toIS5_ESaISt4pairIKS5_S8_EEEixERSE_
	movq	%rax, %rdi
	movq	%r12, %rcx
	movq	%r13, %rbx
	movq	%r12, %rax
	movq	%r13, %rdx
	movq	%rdx, %rax
	movq	%rcx, %rsi
	movq	%rax, %rdx
	call	_ZNSt6vectorINSt7__cxx1112basic_stringIcSt11char_traitsIcESaIcEEESaIS5_EEaSESt16initializer_listIS5_E
.LEHE20:
	leaq	-96(%rbp), %rbx
	addq	$32, %rbx
.L179:
	leaq	-96(%rbp), %rax
	cmpq	%rax, %rbx
	je	.L178
	subq	$32, %rbx
	movq	%rbx, %rdi
	call	_ZNSt7__cxx1112basic_stringIcSt11char_traitsIcESaIcEED1Ev@PLT
	jmp	.L179
.L178:
	leaq	-472(%rbp), %rax
	movq	%rax, %rdi
	call	_ZN9__gnu_cxx17__normal_iteratorIPNSt7__cxx1112basic_stringIcSt11char_traitsIcESaIcEEESt6vectorIS6_SaIS6_EEEppEv
.L177:
	leaq	-256(%rbp), %rdx
	leaq	-472(%rbp), %rax
	movq	%rdx, %rsi
	movq	%rax, %rdi
	call	_ZN9__gnu_cxxneIPNSt7__cxx1112basic_stringIcSt11char_traitsIcESaIcEEESt6vectorIS6_SaIS6_EEEEbRKNS_17__normal_iteratorIT_T0_EESG_
	testb	%al, %al
	jne	.L180
	leaq	-160(%rbp), %rax
	movq	%rax, -416(%rbp)
	movq	-416(%rbp), %rax
	movq	%rax, %rdi
	call	_ZNSt13unordered_mapINSt7__cxx1112basic_stringIcSt11char_traitsIcESaIcEEESt6vectorIS5_SaIS5_EESt4hashIS5_ESt8equal_toIS5_ESaISt4pairIKS5_S8_EEE5beginEv
	movq	%rax, -472(%rbp)
	movq	-416(%rbp), %rax
	movq	%rax, %rdi
	call	_ZNSt13unordered_mapINSt7__cxx1112basic_stringIcSt11char_traitsIcESaIcEEESt6vectorIS5_SaIS5_EESt4hashIS5_ESt8equal_toIS5_ESaISt4pairIKS5_S8_EEE3endEv
	movq	%rax, -256(%rbp)
	jmp	.L181
.L182:
	leaq	-472(%rbp), %rax
	movq	%rax, %rdi
	call	_ZNKSt8__detail14_Node_iteratorISt4pairIKNSt7__cxx1112basic_stringIcSt11char_traitsIcESaIcEEESt6vectorIS7_SaIS7_EEELb0ELb1EEdeEv
	movq	%rax, -408(%rbp)
	movq	-408(%rbp), %rax
	leaq	32(%rax), %rbx
	movq	-408(%rbp), %rdx
	movq	-528(%rbp), %rax
	movq	%rdx, %rsi
	movq	%rax, %rdi
.LEHB21:
	call	_ZNSt13unordered_mapINSt7__cxx1112basic_stringIcSt11char_traitsIcESaIcEEESt6vectorIS5_SaIS5_EESt4hashIS5_ESt8equal_toIS5_ESaISt4pairIKS5_S8_EEEixERSE_
	movq	%rbx, %rsi
	movq	%rax, %rdi
	call	_ZNSt6vectorINSt7__cxx1112basic_stringIcSt11char_traitsIcESaIcEEESaIS5_EEaSERKS7_
.LEHE21:
	leaq	-472(%rbp), %rax
	movq	%rax, %rdi
	call	_ZNSt8__detail14_Node_iteratorISt4pairIKNSt7__cxx1112basic_stringIcSt11char_traitsIcESaIcEEESt6vectorIS7_SaIS7_EEELb0ELb1EEppEv
.L181:
	leaq	-256(%rbp), %rdx
	leaq	-472(%rbp), %rax
	movq	%rdx, %rsi
	movq	%rax, %rdi
	call	_ZNSt8__detailneERKNS_19_Node_iterator_baseISt4pairIKNSt7__cxx1112basic_stringIcSt11char_traitsIcESaIcEEESt6vectorIS7_SaIS7_EEELb1EEESF_
	testb	%al, %al
	jne	.L182
	leaq	-288(%rbp), %rax
	movq	%rax, %rdi
	call	_ZNSt6vectorINSt7__cxx1112basic_stringIcSt11char_traitsIcESaIcEEESaIS5_EED1Ev
	leaq	-160(%rbp), %rax
	movq	%rax, %rdi
	call	_ZNSt13unordered_mapINSt7__cxx1112basic_stringIcSt11char_traitsIcESaIcEEESt6vectorIS5_SaIS5_EESt4hashIS5_ESt8equal_toIS5_ESaISt4pairIKS5_S8_EEED1Ev
	leaq	-320(%rbp), %rax
	movq	%rax, %rdi
	call	_ZNSt6vectorINSt7__cxx1112basic_stringIcSt11char_traitsIcESaIcEEESaIS5_EED1Ev
	leaq	-352(%rbp), %rax
	movq	%rax, %rdi
	call	_ZNSt6vectorINSt7__cxx1112basic_stringIcSt11char_traitsIcESaIcEEESaIS5_EED1Ev
	jmp	.L183
.L205:
	leaq	-224(%rbp), %rax
	movq	%rax, %rdi
	call	_ZNSt13unordered_mapIicSt4hashIiESt8equal_toIiESaISt4pairIKicEEED1Ev
	movq	-56(%rbp), %rax
	subq	%fs:40, %rax
	je	.L195
	jmp	.L206
.L197:
	endbr64
	movq	%rax, %rbx
	leaq	-96(%rbp), %rax
	movq	%rax, %rdi
	call	_ZNSt7__cxx1112basic_stringIcSt11char_traitsIcESaIcEED1Ev@PLT
	jmp	.L185
.L196:
	endbr64
	movq	%rax, %rbx
.L185:
	leaq	-160(%rbp), %rax
	movq	%rax, %rdi
	call	_ZNSaIcED1Ev@PLT
	jmp	.L186
.L200:
	endbr64
	movq	%rax, %rbx
	leaq	-96(%rbp), %rax
	movq	%rax, %rdi
	call	_ZNSt7__cxx1112basic_stringIcSt11char_traitsIcESaIcEED1Ev@PLT
	jmp	.L188
.L202:
	endbr64
	movq	%rax, %rbx
	leaq	-96(%rbp), %rax
	movq	%rax, %rdi
	call	_ZNSt7__cxx1112basic_stringIcSt11char_traitsIcESaIcEED1Ev@PLT
	jmp	.L188
.L203:
	endbr64
	movq	%rax, %rbx
	leaq	-96(%rbp), %rax
	movq	%rax, %rdi
	call	_ZNSt7__cxx1112basic_stringIcSt11char_traitsIcESaIcEED1Ev@PLT
	jmp	.L188
.L201:
	endbr64
	movq	%rax, %rbx
.L188:
	leaq	-256(%rbp), %rax
	movq	%rax, %rdi
	call	_ZNSt6vectorINSt7__cxx1112basic_stringIcSt11char_traitsIcESaIcEEESaIS5_EED1Ev
	jmp	.L191
.L204:
	endbr64
	movq	%rax, %r12
	leaq	-96(%rbp), %rbx
	addq	$32, %rbx
.L194:
	leaq	-96(%rbp), %rax
	cmpq	%rax, %rbx
	je	.L193
	subq	$32, %rbx
	movq	%rbx, %rdi
	call	_ZNSt7__cxx1112basic_stringIcSt11char_traitsIcESaIcEED1Ev@PLT
	jmp	.L194
.L193:
	movq	%r12, %rbx
	jmp	.L191
.L199:
	endbr64
	movq	%rax, %rbx
.L191:
	leaq	-288(%rbp), %rax
	movq	%rax, %rdi
	call	_ZNSt6vectorINSt7__cxx1112basic_stringIcSt11char_traitsIcESaIcEEESaIS5_EED1Ev
	leaq	-160(%rbp), %rax
	movq	%rax, %rdi
	call	_ZNSt13unordered_mapINSt7__cxx1112basic_stringIcSt11char_traitsIcESaIcEEESt6vectorIS5_SaIS5_EESt4hashIS5_ESt8equal_toIS5_ESaISt4pairIKS5_S8_EEED1Ev
	leaq	-320(%rbp), %rax
	movq	%rax, %rdi
	call	_ZNSt6vectorINSt7__cxx1112basic_stringIcSt11char_traitsIcESaIcEEESaIS5_EED1Ev
	leaq	-352(%rbp), %rax
	movq	%rax, %rdi
	call	_ZNSt6vectorINSt7__cxx1112basic_stringIcSt11char_traitsIcESaIcEEESaIS5_EED1Ev
	jmp	.L186
.L198:
	endbr64
	movq	%rax, %rbx
.L186:
	leaq	-224(%rbp), %rax
	movq	%rax, %rdi
	call	_ZNSt13unordered_mapIicSt4hashIiESt8equal_toIiESaISt4pairIKicEEED1Ev
	movq	%rbx, %rax
	movq	%rax, %rdi
.LEHB22:
	call	_Unwind_Resume@PLT
.LEHE22:
.L206:
	call	__stack_chk_fail@PLT
.L195:
	addq	$504, %rsp
	popq	%rbx
	popq	%r12
	popq	%r13
	popq	%r14
	popq	%r15
	popq	%rbp
	.cfi_def_cfa 7, 8
	ret
	.cfi_endproc
.LFE3655:
	.section	.gcc_except_table,"a",@progbits
.LLSDA3655:
	.byte	0xff
	.byte	0xff
	.byte	0x1
	.uleb128 .LLSDACSE3655-.LLSDACSB3655
.LLSDACSB3655:
	.uleb128 .LEHB8-.LFB3655
	.uleb128 .LEHE8-.LEHB8
	.uleb128 .L196-.LFB3655
	.uleb128 0
	.uleb128 .LEHB9-.LFB3655
	.uleb128 .LEHE9-.LEHB9
	.uleb128 .L197-.LFB3655
	.uleb128 0
	.uleb128 .LEHB10-.LFB3655
	.uleb128 .LEHE10-.LEHB10
	.uleb128 .L198-.LFB3655
	.uleb128 0
	.uleb128 .LEHB11-.LFB3655
	.uleb128 .LEHE11-.LEHB11
	.uleb128 .L199-.LFB3655
	.uleb128 0
	.uleb128 .LEHB12-.LFB3655
	.uleb128 .LEHE12-.LEHB12
	.uleb128 .L201-.LFB3655
	.uleb128 0
	.uleb128 .LEHB13-.LFB3655
	.uleb128 .LEHE13-.LEHB13
	.uleb128 .L200-.LFB3655
	.uleb128 0
	.uleb128 .LEHB14-.LFB3655
	.uleb128 .LEHE14-.LEHB14
	.uleb128 .L201-.LFB3655
	.uleb128 0
	.uleb128 .LEHB15-.LFB3655
	.uleb128 .LEHE15-.LEHB15
	.uleb128 .L202-.LFB3655
	.uleb128 0
	.uleb128 .LEHB16-.LFB3655
	.uleb128 .LEHE16-.LEHB16
	.uleb128 .L201-.LFB3655
	.uleb128 0
	.uleb128 .LEHB17-.LFB3655
	.uleb128 .LEHE17-.LEHB17
	.uleb128 .L203-.LFB3655
	.uleb128 0
	.uleb128 .LEHB18-.LFB3655
	.uleb128 .LEHE18-.LEHB18
	.uleb128 .L201-.LFB3655
	.uleb128 0
	.uleb128 .LEHB19-.LFB3655
	.uleb128 .LEHE19-.LEHB19
	.uleb128 .L199-.LFB3655
	.uleb128 0
	.uleb128 .LEHB20-.LFB3655
	.uleb128 .LEHE20-.LEHB20
	.uleb128 .L204-.LFB3655
	.uleb128 0
	.uleb128 .LEHB21-.LFB3655
	.uleb128 .LEHE21-.LEHB21
	.uleb128 .L199-.LFB3655
	.uleb128 0
	.uleb128 .LEHB22-.LFB3655
	.uleb128 .LEHE22-.LEHB22
	.uleb128 0
	.uleb128 0
.LLSDACSE3655:
	.text
	.size	_Z7breakerRKSt6vectorINSt7__cxx1112basic_stringIcSt11char_traitsIcESaIcEEESaIS5_EERSt13unordered_mapIS5_S7_St4hashIS5_ESt8equal_toIS5_ESaISt4pairIKS5_S7_EEEj, .-_Z7breakerRKSt6vectorINSt7__cxx1112basic_stringIcSt11char_traitsIcESaIcEEESaIS5_EERSt13unordered_mapIS5_S7_St4hashIS5_ESt8equal_toIS5_ESaISt4pairIKS5_S7_EEEj
	.section	.rodata
	.align 8
.LC10:
	.string	"C:\\Users\\eugko\\YSKCompressedHashmapDict\\dataset\\"
.LC11:
	.string	"dict.txt"
.LC12:
	.string	"########################"
	.align 8
.LC13:
	.string	"    breaker() call benchmark duration for dictionary: "
.LC14:
	.string	" microseconds"
	.align 8
.LC15:
	.string	"    mapping (.addWord, .addPref, and .makeHashTable) benchmark duration for dictionary: "
.LC16:
	.string	"parasy"
	.align 8
.LC17:
	.string	"    prefix search (trie traversal) benchmark duration for dictionary: "
.LC18:
	.string	"parasynapsis"
	.align 8
.LC19:
	.string	"    word search (trie traversal and hash access) benchmark duration for dictionary: "
.LC20:
	.string	"raaah"
	.align 8
.LC21:
	.string	"    word add (pure trie mapping) benchmark duration for dictionary: "
	.align 8
.LC22:
	.string	"    word search (pure trie traversal) benchmark duration for dictionary: "
.LC23:
	.string	"parasyxx"
	.align 8
.LC24:
	.string	"    word add (trie traversal and hash access) benchmark duration for dictionary: "
.LC25:
	.string	"Goodbye."
	.text
	.globl	main
	.type	main, @function
main:
.LFB3719:
	.cfi_startproc
	.cfi_personality 0x9b,DW.ref.__gxx_personality_v0
	.cfi_lsda 0x1b,.LLSDA3719
	endbr64
	pushq	%rbp
	.cfi_def_cfa_offset 16
	.cfi_offset 6, -16
	movq	%rsp, %rbp
	.cfi_def_cfa_register 6
	pushq	%rbx
	subq	$1224, %rsp
	.cfi_offset 3, -24
	movq	%fs:40, %rax
	movq	%rax, -24(%rbp)
	xorl	%eax, %eax
	leaq	-1024(%rbp), %rax
	movq	%rax, %rdi
	call	_ZNSaIcEC1Ev@PLT
	leaq	-1024(%rbp), %rdx
	leaq	-960(%rbp), %rax
	leaq	.LC10(%rip), %rcx
	movq	%rcx, %rsi
	movq	%rax, %rdi
.LEHB23:
	call	_ZNSt7__cxx1112basic_stringIcSt11char_traitsIcESaIcEEC1IS3_EEPKcRKS3_
.LEHE23:
	leaq	-1024(%rbp), %rax
	movq	%rax, %rdi
	call	_ZNSaIcED1Ev@PLT
	leaq	-1024(%rbp), %rax
	movq	%rax, %rdi
	call	_ZNSt13unordered_mapINSt7__cxx1112basic_stringIcSt11char_traitsIcESaIcEEESt6vectorIS5_SaIS5_EESt4hashIS5_ESt8equal_toIS5_ESaISt4pairIKS5_S8_EEEC1Ev
	leaq	-1056(%rbp), %rax
	movq	%rax, %rdi
	call	_ZNSt6vectorINSt7__cxx1112basic_stringIcSt11char_traitsIcESaIcEEESaIS5_EEC1Ev
	leaq	-800(%rbp), %rax
	movq	%rax, %rdi
	call	_ZN8trieHashC1Ev
	movl	$16, %esi
	movl	$8, %edi
	call	_ZStorSt13_Ios_OpenmodeS_
	movl	%eax, %ebx
	leaq	-832(%rbp), %rax
	leaq	-960(%rbp), %rcx
	leaq	.LC11(%rip), %rdx
	movq	%rcx, %rsi
	movq	%rax, %rdi
.LEHB24:
	call	_ZStplIcSt11char_traitsIcESaIcEENSt7__cxx1112basic_stringIT_T0_T1_EERKS8_PKS5_
.LEHE24:
	leaq	-832(%rbp), %rcx
	leaq	-560(%rbp), %rax
	movl	%ebx, %edx
	movq	%rcx, %rsi
	movq	%rax, %rdi
.LEHB25:
	call	_ZNSt13basic_fstreamIcSt11char_traitsIcEEC1ERKNSt7__cxx1112basic_stringIcS1_SaIcEEESt13_Ios_Openmode@PLT
.LEHE25:
	leaq	-832(%rbp), %rax
	movq	%rax, %rdi
	call	_ZNSt7__cxx1112basic_stringIcSt11char_traitsIcESaIcEED1Ev@PLT
	leaq	-928(%rbp), %rax
	movq	%rax, %rdi
	call	_ZNSt7__cxx1112basic_stringIcSt11char_traitsIcESaIcEEC1Ev@PLT
	leaq	-896(%rbp), %rax
	movq	%rax, %rdi
	call	_ZNSt7__cxx1112basic_stringIcSt11char_traitsIcESaIcEEC1Ev@PLT
	leaq	-864(%rbp), %rax
	movq	%rax, %rdi
	call	_ZNSt7__cxx1112basic_stringIcSt11char_traitsIcESaIcEEC1Ev@PLT
	call	_ZNSt6chrono3_V212system_clock3nowEv@PLT
	movq	%rax, -1224(%rbp)
	jmp	.L208
.L209:
	leaq	-928(%rbp), %rdx
	leaq	-560(%rbp), %rax
	movq	%rdx, %rsi
	movq	%rax, %rdi
.LEHB26:
	call	_ZSt7getlineIcSt11char_traitsIcESaIcEERSt13basic_istreamIT_T0_ES7_RNSt7__cxx1112basic_stringIS4_S5_T1_EE@PLT
	leaq	-928(%rbp), %rdx
	leaq	-1056(%rbp), %rax
	movq	%rdx, %rsi
	movq	%rax, %rdi
	call	_ZNSt6vectorINSt7__cxx1112basic_stringIcSt11char_traitsIcESaIcEEESaIS5_EE9push_backERKS5_
.L208:
	leaq	-560(%rbp), %rax
	addq	$264, %rax
	movq	%rax, %rdi
	call	_ZNKSt9basic_iosIcSt11char_traitsIcEEcvbEv@PLT
	testb	%al, %al
	jne	.L209
	movl	$16, -576(%rbp)
	movl	-576(%rbp), %edx
	leaq	-1024(%rbp), %rcx
	leaq	-1056(%rbp), %rax
	movq	%rcx, %rsi
	movq	%rax, %rdi
	call	_Z7breakerRKSt6vectorINSt7__cxx1112basic_stringIcSt11char_traitsIcESaIcEEESaIS5_EERSt13unordered_mapIS5_S7_St4hashIS5_ESt8equal_toIS5_ESaISt4pairIKS5_S7_EEEj
	call	_ZNSt6chrono3_V212system_clock3nowEv@PLT
	movq	%rax, -1216(%rbp)
	leaq	.LC12(%rip), %rax
	movq	%rax, %rsi
	leaq	_ZSt4cout(%rip), %rax
	movq	%rax, %rdi
	call	_ZStlsISt11char_traitsIcEERSt13basic_ostreamIcT_ES5_PKc@PLT
	movl	$10, %esi
	movq	%rax, %rdi
	call	_ZStlsISt11char_traitsIcEERSt13basic_ostreamIcT_ES5_c@PLT
	leaq	-1224(%rbp), %rdx
	leaq	-1216(%rbp), %rax
	movq	%rdx, %rsi
	movq	%rax, %rdi
	call	_ZNSt6chronomiINS_3_V212system_clockENS_8durationIlSt5ratioILl1ELl1000000000EEEES6_EENSt11common_typeIJT0_T1_EE4typeERKNS_10time_pointIT_S8_EERKNSC_ISD_S9_EE
	movq	%rax, -1080(%rbp)
	leaq	-1080(%rbp), %rdx
	leaq	-1208(%rbp), %rax
	movq	%rdx, %rsi
	movq	%rax, %rdi
	call	_ZNSt6chrono8durationIdSt5ratioILl1ELl1000000EEEC1IlS1_ILl1ELl1000000000EEvEERKNS0_IT_T0_EE
	leaq	.LC13(%rip), %rax
	movq	%rax, %rsi
	leaq	_ZSt4cout(%rip), %rax
	movq	%rax, %rdi
	call	_ZStlsISt11char_traitsIcEERSt13basic_ostreamIcT_ES5_PKc@PLT
	movq	%rax, %rbx
	leaq	-1208(%rbp), %rax
	movq	%rax, %rdi
	call	_ZNKSt6chrono8durationIdSt5ratioILl1ELl1000000EEE5countEv
	movq	%xmm0, %rax
	movq	%rax, %xmm0
	movq	%rbx, %rdi
	call	_ZNSolsEd@PLT
	movq	%rax, %rdx
	leaq	.LC14(%rip), %rax
	movq	%rax, %rsi
	movq	%rdx, %rdi
	call	_ZStlsISt11char_traitsIcEERSt13basic_ostreamIcT_ES5_PKc@PLT
	movq	_ZSt4endlIcSt11char_traitsIcEERSt13basic_ostreamIT_T0_ES6_@GOTPCREL(%rip), %rdx
	movq	%rdx, %rsi
	movq	%rax, %rdi
	call	_ZNSolsEPFRSoS_E@PLT
	call	_ZNSt6chrono3_V212system_clock3nowEv@PLT
	movq	%rax, -1224(%rbp)
	leaq	-1024(%rbp), %rax
	movq	%rax, -1072(%rbp)
	movq	-1072(%rbp), %rax
	movq	%rax, %rdi
	call	_ZNSt13unordered_mapINSt7__cxx1112basic_stringIcSt11char_traitsIcESaIcEEESt6vectorIS5_SaIS5_EESt4hashIS5_ESt8equal_toIS5_ESaISt4pairIKS5_S8_EEE5beginEv
	movq	%rax, -1088(%rbp)
	movq	-1072(%rbp), %rax
	movq	%rax, %rdi
	call	_ZNSt13unordered_mapINSt7__cxx1112basic_stringIcSt11char_traitsIcESaIcEEESt6vectorIS5_SaIS5_EESt4hashIS5_ESt8equal_toIS5_ESaISt4pairIKS5_S8_EEE3endEv
	movq	%rax, -1080(%rbp)
	jmp	.L210
.L212:
	leaq	-1088(%rbp), %rax
	movq	%rax, %rdi
	call	_ZNKSt8__detail14_Node_iteratorISt4pairIKNSt7__cxx1112basic_stringIcSt11char_traitsIcESaIcEEESt6vectorIS7_SaIS7_EEELb0ELb1EEdeEv
	movq	%rax, -1064(%rbp)
	movq	-1064(%rbp), %rax
	addq	$32, %rax
	movq	%rax, %rdi
	call	_ZNKSt6vectorINSt7__cxx1112basic_stringIcSt11char_traitsIcESaIcEEESaIS5_EE4sizeEv
	cmpq	$1, %rax
	sete	%al
	testb	%al, %al
	je	.L211
	movq	-1064(%rbp), %rax
	addq	$32, %rax
	movq	%rax, %rdi
	call	_ZNKSt6vectorINSt7__cxx1112basic_stringIcSt11char_traitsIcESaIcEEESaIS5_EE5frontEv
	movq	%rax, %rdx
	leaq	-832(%rbp), %rax
	movq	%rdx, %rsi
	movq	%rax, %rdi
	call	_ZNSt7__cxx1112basic_stringIcSt11char_traitsIcESaIcEEC1ERKS4_@PLT
.LEHE26:
	leaq	-832(%rbp), %rdx
	leaq	-800(%rbp), %rax
	movq	%rdx, %rsi
	movq	%rax, %rdi
.LEHB27:
	call	_ZN8trieHash7addWordENSt7__cxx1112basic_stringIcSt11char_traitsIcESaIcEEE
.LEHE27:
	leaq	-832(%rbp), %rax
	movq	%rax, %rdi
	call	_ZNSt7__cxx1112basic_stringIcSt11char_traitsIcESaIcEED1Ev@PLT
.L211:
	movq	-1064(%rbp), %rdx
	leaq	-832(%rbp), %rax
	movq	%rdx, %rsi
	movq	%rax, %rdi
.LEHB28:
	call	_ZNSt7__cxx1112basic_stringIcSt11char_traitsIcESaIcEEC1ERKS4_@PLT
.LEHE28:
	leaq	-832(%rbp), %rdx
	leaq	-800(%rbp), %rax
	movq	%rdx, %rsi
	movq	%rax, %rdi
.LEHB29:
	call	_ZN8trieHash7addPrefENSt7__cxx1112basic_stringIcSt11char_traitsIcESaIcEEE
.LEHE29:
	leaq	-832(%rbp), %rax
	movq	%rax, %rdi
	call	_ZNSt7__cxx1112basic_stringIcSt11char_traitsIcESaIcEED1Ev@PLT
	movq	-1064(%rbp), %rax
	leaq	32(%rax), %rbx
	movq	-1064(%rbp), %rdx
	leaq	-832(%rbp), %rax
	movq	%rdx, %rsi
	movq	%rax, %rdi
.LEHB30:
	call	_ZNSt7__cxx1112basic_stringIcSt11char_traitsIcESaIcEEC1ERKS4_@PLT
.LEHE30:
	leaq	-832(%rbp), %rcx
	leaq	-800(%rbp), %rax
	movq	%rbx, %rdx
	movq	%rcx, %rsi
	movq	%rax, %rdi
.LEHB31:
	call	_ZN8trieHash13makeHashTableENSt7__cxx1112basic_stringIcSt11char_traitsIcESaIcEEERKSt6vectorIS5_SaIS5_EE
.LEHE31:
	leaq	-832(%rbp), %rax
	movq	%rax, %rdi
	call	_ZNSt7__cxx1112basic_stringIcSt11char_traitsIcESaIcEED1Ev@PLT
	leaq	-1088(%rbp), %rax
	movq	%rax, %rdi
	call	_ZNSt8__detail14_Node_iteratorISt4pairIKNSt7__cxx1112basic_stringIcSt11char_traitsIcESaIcEEESt6vectorIS7_SaIS7_EEELb0ELb1EEppEv
.L210:
	leaq	-1080(%rbp), %rdx
	leaq	-1088(%rbp), %rax
	movq	%rdx, %rsi
	movq	%rax, %rdi
	call	_ZNSt8__detailneERKNS_19_Node_iterator_baseISt4pairIKNSt7__cxx1112basic_stringIcSt11char_traitsIcESaIcEEESt6vectorIS7_SaIS7_EEELb1EEESF_
	testb	%al, %al
	jne	.L212
	call	_ZNSt6chrono3_V212system_clock3nowEv@PLT
	movq	%rax, -1200(%rbp)
	leaq	-1224(%rbp), %rdx
	leaq	-1200(%rbp), %rax
	movq	%rdx, %rsi
	movq	%rax, %rdi
	call	_ZNSt6chronomiINS_3_V212system_clockENS_8durationIlSt5ratioILl1ELl1000000000EEEES6_EENSt11common_typeIJT0_T1_EE4typeERKNS_10time_pointIT_S8_EERKNSC_ISD_S9_EE
	movq	%rax, -1080(%rbp)
	leaq	-1080(%rbp), %rdx
	leaq	-1192(%rbp), %rax
	movq	%rdx, %rsi
	movq	%rax, %rdi
.LEHB32:
	call	_ZNSt6chrono8durationIdSt5ratioILl1ELl1000000EEEC1IlS1_ILl1ELl1000000000EEvEERKNS0_IT_T0_EE
	movsd	-1192(%rbp), %xmm0
	movsd	%xmm0, -1208(%rbp)
	leaq	.LC15(%rip), %rax
	movq	%rax, %rsi
	leaq	_ZSt4cout(%rip), %rax
	movq	%rax, %rdi
	call	_ZStlsISt11char_traitsIcEERSt13basic_ostreamIcT_ES5_PKc@PLT
	movq	%rax, %rbx
	leaq	-1208(%rbp), %rax
	movq	%rax, %rdi
	call	_ZNKSt6chrono8durationIdSt5ratioILl1ELl1000000EEE5countEv
	movq	%xmm0, %rax
	movq	%rax, %xmm0
	movq	%rbx, %rdi
	call	_ZNSolsEd@PLT
	movq	%rax, %rdx
	leaq	.LC14(%rip), %rax
	movq	%rax, %rsi
	movq	%rdx, %rdi
	call	_ZStlsISt11char_traitsIcEERSt13basic_ostreamIcT_ES5_PKc@PLT
	movq	_ZSt4endlIcSt11char_traitsIcEERSt13basic_ostreamIT_T0_ES6_@GOTPCREL(%rip), %rdx
	movq	%rdx, %rsi
	movq	%rax, %rdi
	call	_ZNSolsEPFRSoS_E@PLT
	call	_ZNSt6chrono3_V212system_clock3nowEv@PLT
	movq	%rax, -1224(%rbp)
	leaq	-896(%rbp), %rax
	leaq	.LC16(%rip), %rdx
	movq	%rdx, %rsi
	movq	%rax, %rdi
	call	_ZNSt7__cxx1112basic_stringIcSt11char_traitsIcESaIcEEaSEPKc@PLT
	leaq	-896(%rbp), %rdx
	leaq	-832(%rbp), %rax
	movq	%rdx, %rsi
	movq	%rax, %rdi
	call	_ZNSt7__cxx1112basic_stringIcSt11char_traitsIcESaIcEEC1ERKS4_@PLT
.LEHE32:
	leaq	-832(%rbp), %rdx
	leaq	-800(%rbp), %rax
	movq	%rdx, %rsi
	movq	%rax, %rdi
.LEHB33:
	call	_ZN8trieHash11checkPrefixENSt7__cxx1112basic_stringIcSt11char_traitsIcESaIcEEE
.LEHE33:
	leaq	-832(%rbp), %rax
	movq	%rax, %rdi
	call	_ZNSt7__cxx1112basic_stringIcSt11char_traitsIcESaIcEED1Ev@PLT
	call	_ZNSt6chrono3_V212system_clock3nowEv@PLT
	movq	%rax, -1184(%rbp)
	leaq	-1224(%rbp), %rdx
	leaq	-1184(%rbp), %rax
	movq	%rdx, %rsi
	movq	%rax, %rdi
	call	_ZNSt6chronomiINS_3_V212system_clockENS_8durationIlSt5ratioILl1ELl1000000000EEEES6_EENSt11common_typeIJT0_T1_EE4typeERKNS_10time_pointIT_S8_EERKNSC_ISD_S9_EE
	movq	%rax, -1080(%rbp)
	leaq	-1080(%rbp), %rdx
	leaq	-1176(%rbp), %rax
	movq	%rdx, %rsi
	movq	%rax, %rdi
.LEHB34:
	call	_ZNSt6chrono8durationIdSt5ratioILl1ELl1000000EEEC1IlS1_ILl1ELl1000000000EEvEERKNS0_IT_T0_EE
	movsd	-1176(%rbp), %xmm0
	movsd	%xmm0, -1208(%rbp)
	leaq	.LC17(%rip), %rax
	movq	%rax, %rsi
	leaq	_ZSt4cout(%rip), %rax
	movq	%rax, %rdi
	call	_ZStlsISt11char_traitsIcEERSt13basic_ostreamIcT_ES5_PKc@PLT
	movq	%rax, %rbx
	leaq	-1208(%rbp), %rax
	movq	%rax, %rdi
	call	_ZNKSt6chrono8durationIdSt5ratioILl1ELl1000000EEE5countEv
	movq	%xmm0, %rax
	movq	%rax, %xmm0
	movq	%rbx, %rdi
	call	_ZNSolsEd@PLT
	movq	%rax, %rdx
	leaq	.LC14(%rip), %rax
	movq	%rax, %rsi
	movq	%rdx, %rdi
	call	_ZStlsISt11char_traitsIcEERSt13basic_ostreamIcT_ES5_PKc@PLT
	movq	_ZSt4endlIcSt11char_traitsIcEERSt13basic_ostreamIT_T0_ES6_@GOTPCREL(%rip), %rdx
	movq	%rdx, %rsi
	movq	%rax, %rdi
	call	_ZNSolsEPFRSoS_E@PLT
	call	_ZNSt6chrono3_V212system_clock3nowEv@PLT
	movq	%rax, -1224(%rbp)
	leaq	-928(%rbp), %rax
	leaq	.LC18(%rip), %rdx
	movq	%rdx, %rsi
	movq	%rax, %rdi
	call	_ZNSt7__cxx1112basic_stringIcSt11char_traitsIcESaIcEEaSEPKc@PLT
	leaq	-928(%rbp), %rdx
	leaq	-832(%rbp), %rax
	movq	%rdx, %rsi
	movq	%rax, %rdi
	call	_ZNSt7__cxx1112basic_stringIcSt11char_traitsIcESaIcEEC1ERKS4_@PLT
.LEHE34:
	leaq	-832(%rbp), %rdx
	leaq	-800(%rbp), %rax
	movq	%rdx, %rsi
	movq	%rax, %rdi
.LEHB35:
	call	_ZN8trieHash8findWordENSt7__cxx1112basic_stringIcSt11char_traitsIcESaIcEEE
.LEHE35:
	leaq	-832(%rbp), %rax
	movq	%rax, %rdi
	call	_ZNSt7__cxx1112basic_stringIcSt11char_traitsIcESaIcEED1Ev@PLT
	call	_ZNSt6chrono3_V212system_clock3nowEv@PLT
	movq	%rax, -1168(%rbp)
	leaq	-1224(%rbp), %rdx
	leaq	-1168(%rbp), %rax
	movq	%rdx, %rsi
	movq	%rax, %rdi
	call	_ZNSt6chronomiINS_3_V212system_clockENS_8durationIlSt5ratioILl1ELl1000000000EEEES6_EENSt11common_typeIJT0_T1_EE4typeERKNS_10time_pointIT_S8_EERKNSC_ISD_S9_EE
	movq	%rax, -1080(%rbp)
	leaq	-1080(%rbp), %rdx
	leaq	-1160(%rbp), %rax
	movq	%rdx, %rsi
	movq	%rax, %rdi
.LEHB36:
	call	_ZNSt6chrono8durationIdSt5ratioILl1ELl1000000EEEC1IlS1_ILl1ELl1000000000EEvEERKNS0_IT_T0_EE
	movsd	-1160(%rbp), %xmm0
	movsd	%xmm0, -1208(%rbp)
	leaq	.LC19(%rip), %rax
	movq	%rax, %rsi
	leaq	_ZSt4cout(%rip), %rax
	movq	%rax, %rdi
	call	_ZStlsISt11char_traitsIcEERSt13basic_ostreamIcT_ES5_PKc@PLT
	movq	%rax, %rbx
	leaq	-1208(%rbp), %rax
	movq	%rax, %rdi
	call	_ZNKSt6chrono8durationIdSt5ratioILl1ELl1000000EEE5countEv
	movq	%xmm0, %rax
	movq	%rax, %xmm0
	movq	%rbx, %rdi
	call	_ZNSolsEd@PLT
	movq	%rax, %rdx
	leaq	.LC14(%rip), %rax
	movq	%rax, %rsi
	movq	%rdx, %rdi
	call	_ZStlsISt11char_traitsIcEERSt13basic_ostreamIcT_ES5_PKc@PLT
	movq	_ZSt4endlIcSt11char_traitsIcEERSt13basic_ostreamIT_T0_ES6_@GOTPCREL(%rip), %rdx
	movq	%rdx, %rsi
	movq	%rax, %rdi
	call	_ZNSolsEPFRSoS_E@PLT
	call	_ZNSt6chrono3_V212system_clock3nowEv@PLT
	movq	%rax, -1224(%rbp)
	leaq	-928(%rbp), %rax
	leaq	.LC20(%rip), %rdx
	movq	%rdx, %rsi
	movq	%rax, %rdi
	call	_ZNSt7__cxx1112basic_stringIcSt11char_traitsIcESaIcEEaSEPKc@PLT
	leaq	-928(%rbp), %rdx
	leaq	-832(%rbp), %rax
	movq	%rdx, %rsi
	movq	%rax, %rdi
	call	_ZNSt7__cxx1112basic_stringIcSt11char_traitsIcESaIcEEC1ERKS4_@PLT
.LEHE36:
	leaq	-832(%rbp), %rdx
	leaq	-800(%rbp), %rax
	movq	%rdx, %rsi
	movq	%rax, %rdi
.LEHB37:
	call	_ZN8trieHash7addWordENSt7__cxx1112basic_stringIcSt11char_traitsIcESaIcEEE
.LEHE37:
	leaq	-832(%rbp), %rax
	movq	%rax, %rdi
	call	_ZNSt7__cxx1112basic_stringIcSt11char_traitsIcESaIcEED1Ev@PLT
	call	_ZNSt6chrono3_V212system_clock3nowEv@PLT
	movq	%rax, -1152(%rbp)
	leaq	-1224(%rbp), %rdx
	leaq	-1152(%rbp), %rax
	movq	%rdx, %rsi
	movq	%rax, %rdi
	call	_ZNSt6chronomiINS_3_V212system_clockENS_8durationIlSt5ratioILl1ELl1000000000EEEES6_EENSt11common_typeIJT0_T1_EE4typeERKNS_10time_pointIT_S8_EERKNSC_ISD_S9_EE
	movq	%rax, -1080(%rbp)
	leaq	-1080(%rbp), %rdx
	leaq	-1144(%rbp), %rax
	movq	%rdx, %rsi
	movq	%rax, %rdi
.LEHB38:
	call	_ZNSt6chrono8durationIdSt5ratioILl1ELl1000000EEEC1IlS1_ILl1ELl1000000000EEvEERKNS0_IT_T0_EE
	movsd	-1144(%rbp), %xmm0
	movsd	%xmm0, -1208(%rbp)
	leaq	.LC21(%rip), %rax
	movq	%rax, %rsi
	leaq	_ZSt4cout(%rip), %rax
	movq	%rax, %rdi
	call	_ZStlsISt11char_traitsIcEERSt13basic_ostreamIcT_ES5_PKc@PLT
	movq	%rax, %rbx
	leaq	-1208(%rbp), %rax
	movq	%rax, %rdi
	call	_ZNKSt6chrono8durationIdSt5ratioILl1ELl1000000EEE5countEv
	movq	%xmm0, %rax
	movq	%rax, %xmm0
	movq	%rbx, %rdi
	call	_ZNSolsEd@PLT
	movq	%rax, %rdx
	leaq	.LC14(%rip), %rax
	movq	%rax, %rsi
	movq	%rdx, %rdi
	call	_ZStlsISt11char_traitsIcEERSt13basic_ostreamIcT_ES5_PKc@PLT
	movq	_ZSt4endlIcSt11char_traitsIcEERSt13basic_ostreamIT_T0_ES6_@GOTPCREL(%rip), %rdx
	movq	%rdx, %rsi
	movq	%rax, %rdi
	call	_ZNSolsEPFRSoS_E@PLT
.LEHE38:
	call	_ZNSt6chrono3_V212system_clock3nowEv@PLT
	movq	%rax, -1224(%rbp)
	leaq	-1080(%rbp), %rax
	movq	%rax, %rdi
	call	_ZNSaIcEC1Ev@PLT
	leaq	-1080(%rbp), %rdx
	leaq	-832(%rbp), %rax
	leaq	.LC20(%rip), %rcx
	movq	%rcx, %rsi
	movq	%rax, %rdi
.LEHB39:
	call	_ZNSt7__cxx1112basic_stringIcSt11char_traitsIcESaIcEEC1IS3_EEPKcRKS3_
.LEHE39:
	leaq	-832(%rbp), %rdx
	leaq	-800(%rbp), %rax
	movq	%rdx, %rsi
	movq	%rax, %rdi
.LEHB40:
	call	_ZN8trieHash8findWordENSt7__cxx1112basic_stringIcSt11char_traitsIcESaIcEEE
.LEHE40:
	leaq	-832(%rbp), %rax
	movq	%rax, %rdi
	call	_ZNSt7__cxx1112basic_stringIcSt11char_traitsIcESaIcEED1Ev@PLT
	leaq	-1080(%rbp), %rax
	movq	%rax, %rdi
	call	_ZNSaIcED1Ev@PLT
	call	_ZNSt6chrono3_V212system_clock3nowEv@PLT
	movq	%rax, -1136(%rbp)
	leaq	-1224(%rbp), %rdx
	leaq	-1136(%rbp), %rax
	movq	%rdx, %rsi
	movq	%rax, %rdi
	call	_ZNSt6chronomiINS_3_V212system_clockENS_8durationIlSt5ratioILl1ELl1000000000EEEES6_EENSt11common_typeIJT0_T1_EE4typeERKNS_10time_pointIT_S8_EERKNSC_ISD_S9_EE
	movq	%rax, -1080(%rbp)
	leaq	-1080(%rbp), %rdx
	leaq	-1128(%rbp), %rax
	movq	%rdx, %rsi
	movq	%rax, %rdi
.LEHB41:
	call	_ZNSt6chrono8durationIdSt5ratioILl1ELl1000000EEEC1IlS1_ILl1ELl1000000000EEvEERKNS0_IT_T0_EE
	movsd	-1128(%rbp), %xmm0
	movsd	%xmm0, -1208(%rbp)
	leaq	.LC22(%rip), %rax
	movq	%rax, %rsi
	leaq	_ZSt4cout(%rip), %rax
	movq	%rax, %rdi
	call	_ZStlsISt11char_traitsIcEERSt13basic_ostreamIcT_ES5_PKc@PLT
	movq	%rax, %rbx
	leaq	-1208(%rbp), %rax
	movq	%rax, %rdi
	call	_ZNKSt6chrono8durationIdSt5ratioILl1ELl1000000EEE5countEv
	movq	%xmm0, %rax
	movq	%rax, %xmm0
	movq	%rbx, %rdi
	call	_ZNSolsEd@PLT
	movq	%rax, %rdx
	leaq	.LC14(%rip), %rax
	movq	%rax, %rsi
	movq	%rdx, %rdi
	call	_ZStlsISt11char_traitsIcEERSt13basic_ostreamIcT_ES5_PKc@PLT
	movq	_ZSt4endlIcSt11char_traitsIcEERSt13basic_ostreamIT_T0_ES6_@GOTPCREL(%rip), %rdx
	movq	%rdx, %rsi
	movq	%rax, %rdi
	call	_ZNSolsEPFRSoS_E@PLT
	call	_ZNSt6chrono3_V212system_clock3nowEv@PLT
	movq	%rax, -1224(%rbp)
	leaq	-928(%rbp), %rax
	leaq	.LC23(%rip), %rdx
	movq	%rdx, %rsi
	movq	%rax, %rdi
	call	_ZNSt7__cxx1112basic_stringIcSt11char_traitsIcESaIcEEaSEPKc@PLT
	leaq	-928(%rbp), %rdx
	leaq	-832(%rbp), %rax
	movq	%rdx, %rsi
	movq	%rax, %rdi
	call	_ZNSt7__cxx1112basic_stringIcSt11char_traitsIcESaIcEEC1ERKS4_@PLT
.LEHE41:
	leaq	-832(%rbp), %rdx
	leaq	-800(%rbp), %rax
	movq	%rdx, %rsi
	movq	%rax, %rdi
.LEHB42:
	call	_ZN8trieHash7addWordENSt7__cxx1112basic_stringIcSt11char_traitsIcESaIcEEE
.LEHE42:
	leaq	-832(%rbp), %rax
	movq	%rax, %rdi
	call	_ZNSt7__cxx1112basic_stringIcSt11char_traitsIcESaIcEED1Ev@PLT
	call	_ZNSt6chrono3_V212system_clock3nowEv@PLT
	movq	%rax, -1120(%rbp)
	leaq	-1224(%rbp), %rdx
	leaq	-1120(%rbp), %rax
	movq	%rdx, %rsi
	movq	%rax, %rdi
	call	_ZNSt6chronomiINS_3_V212system_clockENS_8durationIlSt5ratioILl1ELl1000000000EEEES6_EENSt11common_typeIJT0_T1_EE4typeERKNS_10time_pointIT_S8_EERKNSC_ISD_S9_EE
	movq	%rax, -1080(%rbp)
	leaq	-1080(%rbp), %rdx
	leaq	-1112(%rbp), %rax
	movq	%rdx, %rsi
	movq	%rax, %rdi
.LEHB43:
	call	_ZNSt6chrono8durationIdSt5ratioILl1ELl1000000EEEC1IlS1_ILl1ELl1000000000EEvEERKNS0_IT_T0_EE
	movsd	-1112(%rbp), %xmm0
	movsd	%xmm0, -1208(%rbp)
	leaq	.LC24(%rip), %rax
	movq	%rax, %rsi
	leaq	_ZSt4cout(%rip), %rax
	movq	%rax, %rdi
	call	_ZStlsISt11char_traitsIcEERSt13basic_ostreamIcT_ES5_PKc@PLT
	movq	%rax, %rbx
	leaq	-1208(%rbp), %rax
	movq	%rax, %rdi
	call	_ZNKSt6chrono8durationIdSt5ratioILl1ELl1000000EEE5countEv
	movq	%xmm0, %rax
	movq	%rax, %xmm0
	movq	%rbx, %rdi
	call	_ZNSolsEd@PLT
	movq	%rax, %rdx
	leaq	.LC14(%rip), %rax
	movq	%rax, %rsi
	movq	%rdx, %rdi
	call	_ZStlsISt11char_traitsIcEERSt13basic_ostreamIcT_ES5_PKc@PLT
	movq	_ZSt4endlIcSt11char_traitsIcEERSt13basic_ostreamIT_T0_ES6_@GOTPCREL(%rip), %rdx
	movq	%rdx, %rsi
	movq	%rax, %rdi
	call	_ZNSolsEPFRSoS_E@PLT
	call	_ZNSt6chrono3_V212system_clock3nowEv@PLT
	movq	%rax, -1224(%rbp)
	leaq	-928(%rbp), %rdx
	leaq	-832(%rbp), %rax
	movq	%rdx, %rsi
	movq	%rax, %rdi
	call	_ZNSt7__cxx1112basic_stringIcSt11char_traitsIcESaIcEEC1ERKS4_@PLT
.LEHE43:
	leaq	-832(%rbp), %rdx
	leaq	-800(%rbp), %rax
	movq	%rdx, %rsi
	movq	%rax, %rdi
.LEHB44:
	call	_ZN8trieHash8findWordENSt7__cxx1112basic_stringIcSt11char_traitsIcESaIcEEE
.LEHE44:
	leaq	-832(%rbp), %rax
	movq	%rax, %rdi
	call	_ZNSt7__cxx1112basic_stringIcSt11char_traitsIcESaIcEED1Ev@PLT
	call	_ZNSt6chrono3_V212system_clock3nowEv@PLT
	movq	%rax, -1104(%rbp)
	leaq	-1224(%rbp), %rdx
	leaq	-1104(%rbp), %rax
	movq	%rdx, %rsi
	movq	%rax, %rdi
	call	_ZNSt6chronomiINS_3_V212system_clockENS_8durationIlSt5ratioILl1ELl1000000000EEEES6_EENSt11common_typeIJT0_T1_EE4typeERKNS_10time_pointIT_S8_EERKNSC_ISD_S9_EE
	movq	%rax, -1080(%rbp)
	leaq	-1080(%rbp), %rdx
	leaq	-1088(%rbp), %rax
	movq	%rdx, %rsi
	movq	%rax, %rdi
.LEHB45:
	call	_ZNSt6chrono8durationIdSt5ratioILl1ELl1000000EEEC1IlS1_ILl1ELl1000000000EEvEERKNS0_IT_T0_EE
	movsd	-1088(%rbp), %xmm0
	movsd	%xmm0, -1208(%rbp)
	leaq	.LC19(%rip), %rax
	movq	%rax, %rsi
	leaq	_ZSt4cout(%rip), %rax
	movq	%rax, %rdi
	call	_ZStlsISt11char_traitsIcEERSt13basic_ostreamIcT_ES5_PKc@PLT
	movq	%rax, %rbx
	leaq	-1208(%rbp), %rax
	movq	%rax, %rdi
	call	_ZNKSt6chrono8durationIdSt5ratioILl1ELl1000000EEE5countEv
	movq	%xmm0, %rax
	movq	%rax, %xmm0
	movq	%rbx, %rdi
	call	_ZNSolsEd@PLT
	movq	%rax, %rdx
	leaq	.LC14(%rip), %rax
	movq	%rax, %rsi
	movq	%rdx, %rdi
	call	_ZStlsISt11char_traitsIcEERSt13basic_ostreamIcT_ES5_PKc@PLT
	movq	_ZSt4endlIcSt11char_traitsIcEERSt13basic_ostreamIT_T0_ES6_@GOTPCREL(%rip), %rdx
	movq	%rdx, %rsi
	movq	%rax, %rdi
	call	_ZNSolsEPFRSoS_E@PLT
	call	_ZNSt6chrono3_V212system_clock3nowEv@PLT
	movq	%rax, -1224(%rbp)
	leaq	.LC25(%rip), %rax
	movq	%rax, %rsi
	leaq	_ZSt4cout(%rip), %rax
	movq	%rax, %rdi
	call	_ZStlsISt11char_traitsIcEERSt13basic_ostreamIcT_ES5_PKc@PLT
	movq	_ZSt4endlIcSt11char_traitsIcEERSt13basic_ostreamIT_T0_ES6_@GOTPCREL(%rip), %rdx
	movq	%rdx, %rsi
	movq	%rax, %rdi
	call	_ZNSolsEPFRSoS_E@PLT
	call	_ZNSt6chrono3_V212system_clock3nowEv@PLT
	movq	%rax, -1224(%rbp)
	call	_ZNSt6chrono3_V212system_clock3nowEv@PLT
	movq	%rax, -1096(%rbp)
	leaq	-1224(%rbp), %rdx
	leaq	-1096(%rbp), %rax
	movq	%rdx, %rsi
	movq	%rax, %rdi
	call	_ZNSt6chronomiINS_3_V212system_clockENS_8durationIlSt5ratioILl1ELl1000000000EEEES6_EENSt11common_typeIJT0_T1_EE4typeERKNS_10time_pointIT_S8_EERKNSC_ISD_S9_EE
	movq	%rax, -1088(%rbp)
	leaq	-1088(%rbp), %rdx
	leaq	-1080(%rbp), %rax
	movq	%rdx, %rsi
	movq	%rax, %rdi
	call	_ZNSt6chrono8durationIdSt5ratioILl1ELl1000000EEEC1IlS1_ILl1ELl1000000000EEvEERKNS0_IT_T0_EE
.LEHE45:
	movsd	-1080(%rbp), %xmm0
	movsd	%xmm0, -1208(%rbp)
	movl	$0, %ebx
	leaq	-864(%rbp), %rax
	movq	%rax, %rdi
	call	_ZNSt7__cxx1112basic_stringIcSt11char_traitsIcESaIcEED1Ev@PLT
	leaq	-896(%rbp), %rax
	movq	%rax, %rdi
	call	_ZNSt7__cxx1112basic_stringIcSt11char_traitsIcESaIcEED1Ev@PLT
	leaq	-928(%rbp), %rax
	movq	%rax, %rdi
	call	_ZNSt7__cxx1112basic_stringIcSt11char_traitsIcESaIcEED1Ev@PLT
	leaq	-560(%rbp), %rax
	movq	%rax, %rdi
	call	_ZNSt13basic_fstreamIcSt11char_traitsIcEED1Ev@PLT
	leaq	-800(%rbp), %rax
	movq	%rax, %rdi
	call	_ZN8trieHashD1Ev
	leaq	-1056(%rbp), %rax
	movq	%rax, %rdi
	call	_ZNSt6vectorINSt7__cxx1112basic_stringIcSt11char_traitsIcESaIcEEESaIS5_EED1Ev
	leaq	-1024(%rbp), %rax
	movq	%rax, %rdi
	call	_ZNSt13unordered_mapINSt7__cxx1112basic_stringIcSt11char_traitsIcESaIcEEESt6vectorIS5_SaIS5_EESt4hashIS5_ESt8equal_toIS5_ESaISt4pairIKS5_S8_EEED1Ev
	leaq	-960(%rbp), %rax
	movq	%rax, %rdi
	call	_ZNSt7__cxx1112basic_stringIcSt11char_traitsIcESaIcEED1Ev@PLT
	movl	%ebx, %eax
	movq	-24(%rbp), %rdx
	subq	%fs:40, %rdx
	je	.L228
	jmp	.L243
.L229:
	endbr64
	movq	%rax, %rbx
	leaq	-1024(%rbp), %rax
	movq	%rax, %rdi
	call	_ZNSaIcED1Ev@PLT
	movq	%rbx, %rax
	movq	%rax, %rdi
.LEHB46:
	call	_Unwind_Resume@PLT
.L231:
	endbr64
	movq	%rax, %rbx
	leaq	-832(%rbp), %rax
	movq	%rax, %rdi
	call	_ZNSt7__cxx1112basic_stringIcSt11char_traitsIcESaIcEED1Ev@PLT
	jmp	.L216
.L233:
	endbr64
	movq	%rax, %rbx
	leaq	-832(%rbp), %rax
	movq	%rax, %rdi
	call	_ZNSt7__cxx1112basic_stringIcSt11char_traitsIcESaIcEED1Ev@PLT
	jmp	.L218
.L234:
	endbr64
	movq	%rax, %rbx
	leaq	-832(%rbp), %rax
	movq	%rax, %rdi
	call	_ZNSt7__cxx1112basic_stringIcSt11char_traitsIcESaIcEED1Ev@PLT
	jmp	.L218
.L235:
	endbr64
	movq	%rax, %rbx
	leaq	-832(%rbp), %rax
	movq	%rax, %rdi
	call	_ZNSt7__cxx1112basic_stringIcSt11char_traitsIcESaIcEED1Ev@PLT
	jmp	.L218
.L236:
	endbr64
	movq	%rax, %rbx
	leaq	-832(%rbp), %rax
	movq	%rax, %rdi
	call	_ZNSt7__cxx1112basic_stringIcSt11char_traitsIcESaIcEED1Ev@PLT
	jmp	.L218
.L237:
	endbr64
	movq	%rax, %rbx
	leaq	-832(%rbp), %rax
	movq	%rax, %rdi
	call	_ZNSt7__cxx1112basic_stringIcSt11char_traitsIcESaIcEED1Ev@PLT
	jmp	.L218
.L238:
	endbr64
	movq	%rax, %rbx
	leaq	-832(%rbp), %rax
	movq	%rax, %rdi
	call	_ZNSt7__cxx1112basic_stringIcSt11char_traitsIcESaIcEED1Ev@PLT
	jmp	.L218
.L240:
	endbr64
	movq	%rax, %rbx
	leaq	-832(%rbp), %rax
	movq	%rax, %rdi
	call	_ZNSt7__cxx1112basic_stringIcSt11char_traitsIcESaIcEED1Ev@PLT
	jmp	.L225
.L239:
	endbr64
	movq	%rax, %rbx
.L225:
	leaq	-1080(%rbp), %rax
	movq	%rax, %rdi
	call	_ZNSaIcED1Ev@PLT
	jmp	.L218
.L241:
	endbr64
	movq	%rax, %rbx
	leaq	-832(%rbp), %rax
	movq	%rax, %rdi
	call	_ZNSt7__cxx1112basic_stringIcSt11char_traitsIcESaIcEED1Ev@PLT
	jmp	.L218
.L242:
	endbr64
	movq	%rax, %rbx
	leaq	-832(%rbp), %rax
	movq	%rax, %rdi
	call	_ZNSt7__cxx1112basic_stringIcSt11char_traitsIcESaIcEED1Ev@PLT
	jmp	.L218
.L232:
	endbr64
	movq	%rax, %rbx
.L218:
	leaq	-864(%rbp), %rax
	movq	%rax, %rdi
	call	_ZNSt7__cxx1112basic_stringIcSt11char_traitsIcESaIcEED1Ev@PLT
	leaq	-896(%rbp), %rax
	movq	%rax, %rdi
	call	_ZNSt7__cxx1112basic_stringIcSt11char_traitsIcESaIcEED1Ev@PLT
	leaq	-928(%rbp), %rax
	movq	%rax, %rdi
	call	_ZNSt7__cxx1112basic_stringIcSt11char_traitsIcESaIcEED1Ev@PLT
	leaq	-560(%rbp), %rax
	movq	%rax, %rdi
	call	_ZNSt13basic_fstreamIcSt11char_traitsIcEED1Ev@PLT
	jmp	.L216
.L230:
	endbr64
	movq	%rax, %rbx
.L216:
	leaq	-800(%rbp), %rax
	movq	%rax, %rdi
	call	_ZN8trieHashD1Ev
	leaq	-1056(%rbp), %rax
	movq	%rax, %rdi
	call	_ZNSt6vectorINSt7__cxx1112basic_stringIcSt11char_traitsIcESaIcEEESaIS5_EED1Ev
	leaq	-1024(%rbp), %rax
	movq	%rax, %rdi
	call	_ZNSt13unordered_mapINSt7__cxx1112basic_stringIcSt11char_traitsIcESaIcEEESt6vectorIS5_SaIS5_EESt4hashIS5_ESt8equal_toIS5_ESaISt4pairIKS5_S8_EEED1Ev
	leaq	-960(%rbp), %rax
	movq	%rax, %rdi
	call	_ZNSt7__cxx1112basic_stringIcSt11char_traitsIcESaIcEED1Ev@PLT
	movq	%rbx, %rax
	movq	%rax, %rdi
	call	_Unwind_Resume@PLT
.LEHE46:
.L243:
	call	__stack_chk_fail@PLT
.L228:
	movq	-8(%rbp), %rbx
	leave
	.cfi_def_cfa 7, 8
	ret
	.cfi_endproc
.LFE3719:
	.section	.gcc_except_table
.LLSDA3719:
	.byte	0xff
	.byte	0xff
	.byte	0x1
	.uleb128 .LLSDACSE3719-.LLSDACSB3719
.LLSDACSB3719:
	.uleb128 .LEHB23-.LFB3719
	.uleb128 .LEHE23-.LEHB23
	.uleb128 .L229-.LFB3719
	.uleb128 0
	.uleb128 .LEHB24-.LFB3719
	.uleb128 .LEHE24-.LEHB24
	.uleb128 .L230-.LFB3719
	.uleb128 0
	.uleb128 .LEHB25-.LFB3719
	.uleb128 .LEHE25-.LEHB25
	.uleb128 .L231-.LFB3719
	.uleb128 0
	.uleb128 .LEHB26-.LFB3719
	.uleb128 .LEHE26-.LEHB26
	.uleb128 .L232-.LFB3719
	.uleb128 0
	.uleb128 .LEHB27-.LFB3719
	.uleb128 .LEHE27-.LEHB27
	.uleb128 .L233-.LFB3719
	.uleb128 0
	.uleb128 .LEHB28-.LFB3719
	.uleb128 .LEHE28-.LEHB28
	.uleb128 .L232-.LFB3719
	.uleb128 0
	.uleb128 .LEHB29-.LFB3719
	.uleb128 .LEHE29-.LEHB29
	.uleb128 .L234-.LFB3719
	.uleb128 0
	.uleb128 .LEHB30-.LFB3719
	.uleb128 .LEHE30-.LEHB30
	.uleb128 .L232-.LFB3719
	.uleb128 0
	.uleb128 .LEHB31-.LFB3719
	.uleb128 .LEHE31-.LEHB31
	.uleb128 .L235-.LFB3719
	.uleb128 0
	.uleb128 .LEHB32-.LFB3719
	.uleb128 .LEHE32-.LEHB32
	.uleb128 .L232-.LFB3719
	.uleb128 0
	.uleb128 .LEHB33-.LFB3719
	.uleb128 .LEHE33-.LEHB33
	.uleb128 .L236-.LFB3719
	.uleb128 0
	.uleb128 .LEHB34-.LFB3719
	.uleb128 .LEHE34-.LEHB34
	.uleb128 .L232-.LFB3719
	.uleb128 0
	.uleb128 .LEHB35-.LFB3719
	.uleb128 .LEHE35-.LEHB35
	.uleb128 .L237-.LFB3719
	.uleb128 0
	.uleb128 .LEHB36-.LFB3719
	.uleb128 .LEHE36-.LEHB36
	.uleb128 .L232-.LFB3719
	.uleb128 0
	.uleb128 .LEHB37-.LFB3719
	.uleb128 .LEHE37-.LEHB37
	.uleb128 .L238-.LFB3719
	.uleb128 0
	.uleb128 .LEHB38-.LFB3719
	.uleb128 .LEHE38-.LEHB38
	.uleb128 .L232-.LFB3719
	.uleb128 0
	.uleb128 .LEHB39-.LFB3719
	.uleb128 .LEHE39-.LEHB39
	.uleb128 .L239-.LFB3719
	.uleb128 0
	.uleb128 .LEHB40-.LFB3719
	.uleb128 .LEHE40-.LEHB40
	.uleb128 .L240-.LFB3719
	.uleb128 0
	.uleb128 .LEHB41-.LFB3719
	.uleb128 .LEHE41-.LEHB41
	.uleb128 .L232-.LFB3719
	.uleb128 0
	.uleb128 .LEHB42-.LFB3719
	.uleb128 .LEHE42-.LEHB42
	.uleb128 .L241-.LFB3719
	.uleb128 0
	.uleb128 .LEHB43-.LFB3719
	.uleb128 .LEHE43-.LEHB43
	.uleb128 .L232-.LFB3719
	.uleb128 0
	.uleb128 .LEHB44-.LFB3719
	.uleb128 .LEHE44-.LEHB44
	.uleb128 .L242-.LFB3719
	.uleb128 0
	.uleb128 .LEHB45-.LFB3719
	.uleb128 .LEHE45-.LEHB45
	.uleb128 .L232-.LFB3719
	.uleb128 0
	.uleb128 .LEHB46-.LFB3719
	.uleb128 .LEHE46-.LEHB46
	.uleb128 0
	.uleb128 0
.LLSDACSE3719:
	.text
	.size	main, .-main
	.section	.text._ZSt3maxImERKT_S2_S2_,"axG",@progbits,_ZSt3maxImERKT_S2_S2_,comdat
	.weak	_ZSt3maxImERKT_S2_S2_
	.type	_ZSt3maxImERKT_S2_S2_, @function
_ZSt3maxImERKT_S2_S2_:
.LFB3723:
	.cfi_startproc
	endbr64
	pushq	%rbp
	.cfi_def_cfa_offset 16
	.cfi_offset 6, -16
	movq	%rsp, %rbp
	.cfi_def_cfa_register 6
	movq	%rdi, -8(%rbp)
	movq	%rsi, -16(%rbp)
	movq	-8(%rbp), %rax
	movq	(%rax), %rdx
	movq	-16(%rbp), %rax
	movq	(%rax), %rax
	cmpq	%rax, %rdx
	jnb	.L245
	movq	-16(%rbp), %rax
	jmp	.L246
.L245:
	movq	-8(%rbp), %rax
.L246:
	popq	%rbp
	.cfi_def_cfa 7, 8
	ret
	.cfi_endproc
.LFE3723:
	.size	_ZSt3maxImERKT_S2_S2_, .-_ZSt3maxImERKT_S2_S2_
	.section	.text._ZN9__gnu_cxx11char_traitsIcE2eqERKcS3_,"axG",@progbits,_ZN9__gnu_cxx11char_traitsIcE2eqERKcS3_,comdat
	.weak	_ZN9__gnu_cxx11char_traitsIcE2eqERKcS3_
	.type	_ZN9__gnu_cxx11char_traitsIcE2eqERKcS3_, @function
_ZN9__gnu_cxx11char_traitsIcE2eqERKcS3_:
.LFB3732:
	.cfi_startproc
	endbr64
	pushq	%rbp
	.cfi_def_cfa_offset 16
	.cfi_offset 6, -16
	movq	%rsp, %rbp
	.cfi_def_cfa_register 6
	movq	%rdi, -8(%rbp)
	movq	%rsi, -16(%rbp)
	movq	-8(%rbp), %rax
	movzbl	(%rax), %edx
	movq	-16(%rbp), %rax
	movzbl	(%rax), %eax
	cmpb	%al, %dl
	sete	%al
	popq	%rbp
	.cfi_def_cfa 7, 8
	ret
	.cfi_endproc
.LFE3732:
	.size	_ZN9__gnu_cxx11char_traitsIcE2eqERKcS3_, .-_ZN9__gnu_cxx11char_traitsIcE2eqERKcS3_
	.section	.text._ZN9__gnu_cxx11char_traitsIcE6lengthEPKc,"axG",@progbits,_ZN9__gnu_cxx11char_traitsIcE6lengthEPKc,comdat
	.align 2
	.weak	_ZN9__gnu_cxx11char_traitsIcE6lengthEPKc
	.type	_ZN9__gnu_cxx11char_traitsIcE6lengthEPKc, @function
_ZN9__gnu_cxx11char_traitsIcE6lengthEPKc:
.LFB3731:
	.cfi_startproc
	endbr64
	pushq	%rbp
	.cfi_def_cfa_offset 16
	.cfi_offset 6, -16
	movq	%rsp, %rbp
	.cfi_def_cfa_register 6
	subq	$48, %rsp
	movq	%rdi, -40(%rbp)
	movq	%fs:40, %rax
	movq	%rax, -8(%rbp)
	xorl	%eax, %eax
	movq	$0, -16(%rbp)
	jmp	.L250
.L251:
	addq	$1, -16(%rbp)
.L250:
	movb	$0, -17(%rbp)
	movq	-40(%rbp), %rdx
	movq	-16(%rbp), %rax
	addq	%rax, %rdx
	leaq	-17(%rbp), %rax
	movq	%rax, %rsi
	movq	%rdx, %rdi
	call	_ZN9__gnu_cxx11char_traitsIcE2eqERKcS3_
	xorl	$1, %eax
	testb	%al, %al
	jne	.L251
	movq	-16(%rbp), %rax
	movq	-8(%rbp), %rdx
	subq	%fs:40, %rdx
	je	.L253
	call	__stack_chk_fail@PLT
.L253:
	leave
	.cfi_def_cfa 7, 8
	ret
	.cfi_endproc
.LFE3731:
	.size	_ZN9__gnu_cxx11char_traitsIcE6lengthEPKc, .-_ZN9__gnu_cxx11char_traitsIcE6lengthEPKc
	.section	.text._ZNSt7__cxx1112basic_stringIcSt11char_traitsIcESaIcEE12_Alloc_hiderD2Ev,"axG",@progbits,_ZNSt7__cxx1112basic_stringIcSt11char_traitsIcESaIcEE12_Alloc_hiderD5Ev,comdat
	.align 2
	.weak	_ZNSt7__cxx1112basic_stringIcSt11char_traitsIcESaIcEE12_Alloc_hiderD2Ev
	.type	_ZNSt7__cxx1112basic_stringIcSt11char_traitsIcESaIcEE12_Alloc_hiderD2Ev, @function
_ZNSt7__cxx1112basic_stringIcSt11char_traitsIcESaIcEE12_Alloc_hiderD2Ev:
.LFB3837:
	.cfi_startproc
	endbr64
	pushq	%rbp
	.cfi_def_cfa_offset 16
	.cfi_offset 6, -16
	movq	%rsp, %rbp
	.cfi_def_cfa_register 6
	subq	$16, %rsp
	movq	%rdi, -8(%rbp)
	movq	-8(%rbp), %rax
	movq	%rax, %rdi
	call	_ZNSaIcED2Ev@PLT
	nop
	leave
	.cfi_def_cfa 7, 8
	ret
	.cfi_endproc
.LFE3837:
	.size	_ZNSt7__cxx1112basic_stringIcSt11char_traitsIcESaIcEE12_Alloc_hiderD2Ev, .-_ZNSt7__cxx1112basic_stringIcSt11char_traitsIcESaIcEE12_Alloc_hiderD2Ev
	.weak	_ZNSt7__cxx1112basic_stringIcSt11char_traitsIcESaIcEE12_Alloc_hiderD1Ev
	.set	_ZNSt7__cxx1112basic_stringIcSt11char_traitsIcESaIcEE12_Alloc_hiderD1Ev,_ZNSt7__cxx1112basic_stringIcSt11char_traitsIcESaIcEE12_Alloc_hiderD2Ev
	.section	.text._ZStplIcSt11char_traitsIcESaIcEENSt7__cxx1112basic_stringIT_T0_T1_EERKS8_PKS5_,"axG",@progbits,_ZStplIcSt11char_traitsIcESaIcEENSt7__cxx1112basic_stringIT_T0_T1_EERKS8_PKS5_,comdat
	.weak	_ZStplIcSt11char_traitsIcESaIcEENSt7__cxx1112basic_stringIT_T0_T1_EERKS8_PKS5_
	.type	_ZStplIcSt11char_traitsIcESaIcEENSt7__cxx1112basic_stringIT_T0_T1_EERKS8_PKS5_, @function
_ZStplIcSt11char_traitsIcESaIcEENSt7__cxx1112basic_stringIT_T0_T1_EERKS8_PKS5_:
.LFB3984:
	.cfi_startproc
	.cfi_personality 0x9b,DW.ref.__gxx_personality_v0
	.cfi_lsda 0x1b,.LLSDA3984
	endbr64
	pushq	%rbp
	.cfi_def_cfa_offset 16
	.cfi_offset 6, -16
	movq	%rsp, %rbp
	.cfi_def_cfa_register 6
	pushq	%rbx
	subq	$40, %rsp
	.cfi_offset 3, -24
	movq	%rdi, -24(%rbp)
	movq	%rsi, -32(%rbp)
	movq	%rdx, -40(%rbp)
	movq	-32(%rbp), %rdx
	movq	-24(%rbp), %rax
	movq	%rdx, %rsi
	movq	%rax, %rdi
.LEHB47:
	call	_ZNSt7__cxx1112basic_stringIcSt11char_traitsIcESaIcEEC1ERKS4_@PLT
.LEHE47:
	movq	-40(%rbp), %rdx
	movq	-24(%rbp), %rax
	movq	%rdx, %rsi
	movq	%rax, %rdi
.LEHB48:
	call	_ZNSt7__cxx1112basic_stringIcSt11char_traitsIcESaIcEE6appendEPKc@PLT
.LEHE48:
	jmp	.L259
.L258:
	endbr64
	movq	%rax, %rbx
	movq	-24(%rbp), %rax
	movq	%rax, %rdi
	call	_ZNSt7__cxx1112basic_stringIcSt11char_traitsIcESaIcEED1Ev@PLT
	movq	%rbx, %rax
	movq	%rax, %rdi
.LEHB49:
	call	_Unwind_Resume@PLT
.LEHE49:
.L259:
	movq	-24(%rbp), %rax
	movq	-8(%rbp), %rbx
	leave
	.cfi_def_cfa 7, 8
	ret
	.cfi_endproc
.LFE3984:
	.section	.gcc_except_table
.LLSDA3984:
	.byte	0xff
	.byte	0xff
	.byte	0x1
	.uleb128 .LLSDACSE3984-.LLSDACSB3984
.LLSDACSB3984:
	.uleb128 .LEHB47-.LFB3984
	.uleb128 .LEHE47-.LEHB47
	.uleb128 0
	.uleb128 0
	.uleb128 .LEHB48-.LFB3984
	.uleb128 .LEHE48-.LEHB48
	.uleb128 .L258-.LFB3984
	.uleb128 0
	.uleb128 .LEHB49-.LFB3984
	.uleb128 .LEHE49-.LEHB49
	.uleb128 0
	.uleb128 0
.LLSDACSE3984:
	.section	.text._ZStplIcSt11char_traitsIcESaIcEENSt7__cxx1112basic_stringIT_T0_T1_EERKS8_PKS5_,"axG",@progbits,_ZStplIcSt11char_traitsIcESaIcEENSt7__cxx1112basic_stringIT_T0_T1_EERKS8_PKS5_,comdat
	.size	_ZStplIcSt11char_traitsIcESaIcEENSt7__cxx1112basic_stringIT_T0_T1_EERKS8_PKS5_, .-_ZStplIcSt11char_traitsIcESaIcEENSt7__cxx1112basic_stringIT_T0_T1_EERKS8_PKS5_
	.section	.text._ZNSt6chrono13duration_castINS_8durationIdSt5ratioILl1ELl1000000EEEElS2_ILl1ELl1000000000EEEENSt9enable_ifIXsrNS_13__is_durationIT_EE5valueES8_E4typeERKNS1_IT0_T1_EE,"axG",@progbits,_ZNSt6chrono13duration_castINS_8durationIdSt5ratioILl1ELl1000000EEEElS2_ILl1ELl1000000000EEEENSt9enable_ifIXsrNS_13__is_durationIT_EE5valueES8_E4typeERKNS1_IT0_T1_EE,comdat
	.weak	_ZNSt6chrono13duration_castINS_8durationIdSt5ratioILl1ELl1000000EEEElS2_ILl1ELl1000000000EEEENSt9enable_ifIXsrNS_13__is_durationIT_EE5valueES8_E4typeERKNS1_IT0_T1_EE
	.type	_ZNSt6chrono13duration_castINS_8durationIdSt5ratioILl1ELl1000000EEEElS2_ILl1ELl1000000000EEEENSt9enable_ifIXsrNS_13__is_durationIT_EE5valueES8_E4typeERKNS1_IT0_T1_EE, @function
_ZNSt6chrono13duration_castINS_8durationIdSt5ratioILl1ELl1000000EEEElS2_ILl1ELl1000000000EEEENSt9enable_ifIXsrNS_13__is_durationIT_EE5valueES8_E4typeERKNS1_IT0_T1_EE:
.LFB4033:
	.cfi_startproc
	endbr64
	pushq	%rbp
	.cfi_def_cfa_offset 16
	.cfi_offset 6, -16
	movq	%rsp, %rbp
	.cfi_def_cfa_register 6
	subq	$16, %rsp
	movq	%rdi, -8(%rbp)
	movq	-8(%rbp), %rax
	movq	%rax, %rdi
	call	_ZNSt6chrono20__duration_cast_implINS_8durationIdSt5ratioILl1ELl1000000EEEES2_ILl1ELl1000EEdLb1ELb0EE6__castIlS2_ILl1ELl1000000000EEEES4_RKNS1_IT_T0_EE
	movq	%xmm0, %rax
	movq	%rax, %xmm0
	leave
	.cfi_def_cfa 7, 8
	ret
	.cfi_endproc
.LFE4033:
	.size	_ZNSt6chrono13duration_castINS_8durationIdSt5ratioILl1ELl1000000EEEElS2_ILl1ELl1000000000EEEENSt9enable_ifIXsrNS_13__is_durationIT_EE5valueES8_E4typeERKNS1_IT0_T1_EE, .-_ZNSt6chrono13duration_castINS_8durationIdSt5ratioILl1ELl1000000EEEElS2_ILl1ELl1000000000EEEENSt9enable_ifIXsrNS_13__is_durationIT_EE5valueES8_E4typeERKNS1_IT0_T1_EE
	.section	.text._ZNKSt13unordered_mapImNSt7__cxx1112basic_stringIcSt11char_traitsIcESaIcEEESt4hashImESt8equal_toImESaISt4pairIKmS5_EEE4sizeEv,"axG",@progbits,_ZNKSt13unordered_mapImNSt7__cxx1112basic_stringIcSt11char_traitsIcESaIcEEESt4hashImESt8equal_toImESaISt4pairIKmS5_EEE4sizeEv,comdat
	.align 2
	.weak	_ZNKSt13unordered_mapImNSt7__cxx1112basic_stringIcSt11char_traitsIcESaIcEEESt4hashImESt8equal_toImESaISt4pairIKmS5_EEE4sizeEv
	.type	_ZNKSt13unordered_mapImNSt7__cxx1112basic_stringIcSt11char_traitsIcESaIcEEESt4hashImESt8equal_toImESaISt4pairIKmS5_EEE4sizeEv, @function
_ZNKSt13unordered_mapImNSt7__cxx1112basic_stringIcSt11char_traitsIcESaIcEEESt4hashImESt8equal_toImESaISt4pairIKmS5_EEE4sizeEv:
.LFB4034:
	.cfi_startproc
	endbr64
	pushq	%rbp
	.cfi_def_cfa_offset 16
	.cfi_offset 6, -16
	movq	%rsp, %rbp
	.cfi_def_cfa_register 6
	subq	$16, %rsp
	movq	%rdi, -8(%rbp)
	movq	-8(%rbp), %rax
	movq	%rax, %rdi
	call	_ZNKSt10_HashtableImSt4pairIKmNSt7__cxx1112basic_stringIcSt11char_traitsIcESaIcEEEESaIS8_ENSt8__detail10_Select1stESt8equal_toImESt4hashImENSA_18_Mod_range_hashingENSA_20_Default_ranged_hashENSA_20_Prime_rehash_policyENSA_17_Hashtable_traitsILb0ELb0ELb1EEEE4sizeEv
	leave
	.cfi_def_cfa 7, 8
	ret
	.cfi_endproc
.LFE4034:
	.size	_ZNKSt13unordered_mapImNSt7__cxx1112basic_stringIcSt11char_traitsIcESaIcEEESt4hashImESt8equal_toImESaISt4pairIKmS5_EEE4sizeEv, .-_ZNKSt13unordered_mapImNSt7__cxx1112basic_stringIcSt11char_traitsIcESaIcEEESt4hashImESt8equal_toImESaISt4pairIKmS5_EEE4sizeEv
	.section	.text._ZNSt13unordered_mapImNSt7__cxx1112basic_stringIcSt11char_traitsIcESaIcEEESt4hashImESt8equal_toImESaISt4pairIKmS5_EEE7emplaceIJRmRS5_EEESA_INSt8__detail14_Node_iteratorISC_Lb0ELb0EEEbEDpOT_,"axG",@progbits,_ZNSt13unordered_mapImNSt7__cxx1112basic_stringIcSt11char_traitsIcESaIcEEESt4hashImESt8equal_toImESaISt4pairIKmS5_EEE7emplaceIJRmRS5_EEESA_INSt8__detail14_Node_iteratorISC_Lb0ELb0EEEbEDpOT_,comdat
	.align 2
	.weak	_ZNSt13unordered_mapImNSt7__cxx1112basic_stringIcSt11char_traitsIcESaIcEEESt4hashImESt8equal_toImESaISt4pairIKmS5_EEE7emplaceIJRmRS5_EEESA_INSt8__detail14_Node_iteratorISC_Lb0ELb0EEEbEDpOT_
	.type	_ZNSt13unordered_mapImNSt7__cxx1112basic_stringIcSt11char_traitsIcESaIcEEESt4hashImESt8equal_toImESaISt4pairIKmS5_EEE7emplaceIJRmRS5_EEESA_INSt8__detail14_Node_iteratorISC_Lb0ELb0EEEbEDpOT_, @function
_ZNSt13unordered_mapImNSt7__cxx1112basic_stringIcSt11char_traitsIcESaIcEEESt4hashImESt8equal_toImESaISt4pairIKmS5_EEE7emplaceIJRmRS5_EEESA_INSt8__detail14_Node_iteratorISC_Lb0ELb0EEEbEDpOT_:
.LFB4035:
	.cfi_startproc
	endbr64
	pushq	%rbp
	.cfi_def_cfa_offset 16
	.cfi_offset 6, -16
	movq	%rsp, %rbp
	.cfi_def_cfa_register 6
	pushq	%r12
	pushq	%rbx
	subq	$32, %rsp
	.cfi_offset 12, -24
	.cfi_offset 3, -32
	movq	%rdi, -24(%rbp)
	movq	%rsi, -32(%rbp)
	movq	%rdx, -40(%rbp)
	movq	-24(%rbp), %rbx
	movq	-40(%rbp), %rax
	movq	%rax, %rdi
	call	_ZSt7forwardIRNSt7__cxx1112basic_stringIcSt11char_traitsIcESaIcEEEEOT_RNSt16remove_referenceIS7_E4typeE
	movq	%rax, %r12
	movq	-32(%rbp), %rax
	movq	%rax, %rdi
	call	_ZSt7forwardIRmEOT_RNSt16remove_referenceIS1_E4typeE
	movq	%r12, %rdx
	movq	%rax, %rsi
	movq	%rbx, %rdi
	call	_ZNSt10_HashtableImSt4pairIKmNSt7__cxx1112basic_stringIcSt11char_traitsIcESaIcEEEESaIS8_ENSt8__detail10_Select1stESt8equal_toImESt4hashImENSA_18_Mod_range_hashingENSA_20_Default_ranged_hashENSA_20_Prime_rehash_policyENSA_17_Hashtable_traitsILb0ELb0ELb1EEEE7emplaceIJRmRS7_EEES0_INSA_14_Node_iteratorIS8_Lb0ELb0EEEbEDpOT_
	addq	$32, %rsp
	popq	%rbx
	popq	%r12
	popq	%rbp
	.cfi_def_cfa 7, 8
	ret
	.cfi_endproc
.LFE4035:
	.size	_ZNSt13unordered_mapImNSt7__cxx1112basic_stringIcSt11char_traitsIcESaIcEEESt4hashImESt8equal_toImESaISt4pairIKmS5_EEE7emplaceIJRmRS5_EEESA_INSt8__detail14_Node_iteratorISC_Lb0ELb0EEEbEDpOT_, .-_ZNSt13unordered_mapImNSt7__cxx1112basic_stringIcSt11char_traitsIcESaIcEEESt4hashImESt8equal_toImESaISt4pairIKmS5_EEE7emplaceIJRmRS5_EEESA_INSt8__detail14_Node_iteratorISC_Lb0ELb0EEEbEDpOT_
	.section	.text._ZNSt8__detail21_Hashtable_ebo_helperILi1ESt4hashImELb1EEC2Ev,"axG",@progbits,_ZNSt8__detail21_Hashtable_ebo_helperILi1ESt4hashImELb1EEC5Ev,comdat
	.align 2
	.weak	_ZNSt8__detail21_Hashtable_ebo_helperILi1ESt4hashImELb1EEC2Ev
	.type	_ZNSt8__detail21_Hashtable_ebo_helperILi1ESt4hashImELb1EEC2Ev, @function
_ZNSt8__detail21_Hashtable_ebo_helperILi1ESt4hashImELb1EEC2Ev:
.LFB4041:
	.cfi_startproc
	endbr64
	pushq	%rbp
	.cfi_def_cfa_offset 16
	.cfi_offset 6, -16
	movq	%rsp, %rbp
	.cfi_def_cfa_register 6
	movq	%rdi, -8(%rbp)
	nop
	popq	%rbp
	.cfi_def_cfa 7, 8
	ret
	.cfi_endproc
.LFE4041:
	.size	_ZNSt8__detail21_Hashtable_ebo_helperILi1ESt4hashImELb1EEC2Ev, .-_ZNSt8__detail21_Hashtable_ebo_helperILi1ESt4hashImELb1EEC2Ev
	.weak	_ZNSt8__detail21_Hashtable_ebo_helperILi1ESt4hashImELb1EEC1Ev
	.set	_ZNSt8__detail21_Hashtable_ebo_helperILi1ESt4hashImELb1EEC1Ev,_ZNSt8__detail21_Hashtable_ebo_helperILi1ESt4hashImELb1EEC2Ev
	.section	.text._ZNSt8__detail21_Hashtable_ebo_helperILi0ESt8equal_toImELb1EEC2Ev,"axG",@progbits,_ZNSt8__detail21_Hashtable_ebo_helperILi0ESt8equal_toImELb1EEC5Ev,comdat
	.align 2
	.weak	_ZNSt8__detail21_Hashtable_ebo_helperILi0ESt8equal_toImELb1EEC2Ev
	.type	_ZNSt8__detail21_Hashtable_ebo_helperILi0ESt8equal_toImELb1EEC2Ev, @function
_ZNSt8__detail21_Hashtable_ebo_helperILi0ESt8equal_toImELb1EEC2Ev:
.LFB4044:
	.cfi_startproc
	endbr64
	pushq	%rbp
	.cfi_def_cfa_offset 16
	.cfi_offset 6, -16
	movq	%rsp, %rbp
	.cfi_def_cfa_register 6
	movq	%rdi, -8(%rbp)
	nop
	popq	%rbp
	.cfi_def_cfa 7, 8
	ret
	.cfi_endproc
.LFE4044:
	.size	_ZNSt8__detail21_Hashtable_ebo_helperILi0ESt8equal_toImELb1EEC2Ev, .-_ZNSt8__detail21_Hashtable_ebo_helperILi0ESt8equal_toImELb1EEC2Ev
	.weak	_ZNSt8__detail21_Hashtable_ebo_helperILi0ESt8equal_toImELb1EEC1Ev
	.set	_ZNSt8__detail21_Hashtable_ebo_helperILi0ESt8equal_toImELb1EEC1Ev,_ZNSt8__detail21_Hashtable_ebo_helperILi0ESt8equal_toImELb1EEC2Ev
	.section	.text._ZNSt8__detail21_Hashtable_ebo_helperILi0ESaINS_10_Hash_nodeISt4pairIKmNSt7__cxx1112basic_stringIcSt11char_traitsIcESaIcEEEELb0EEEELb1EEC2Ev,"axG",@progbits,_ZNSt8__detail21_Hashtable_ebo_helperILi0ESaINS_10_Hash_nodeISt4pairIKmNSt7__cxx1112basic_stringIcSt11char_traitsIcESaIcEEEELb0EEEELb1EEC5Ev,comdat
	.align 2
	.weak	_ZNSt8__detail21_Hashtable_ebo_helperILi0ESaINS_10_Hash_nodeISt4pairIKmNSt7__cxx1112basic_stringIcSt11char_traitsIcESaIcEEEELb0EEEELb1EEC2Ev
	.type	_ZNSt8__detail21_Hashtable_ebo_helperILi0ESaINS_10_Hash_nodeISt4pairIKmNSt7__cxx1112basic_stringIcSt11char_traitsIcESaIcEEEELb0EEEELb1EEC2Ev, @function
_ZNSt8__detail21_Hashtable_ebo_helperILi0ESaINS_10_Hash_nodeISt4pairIKmNSt7__cxx1112basic_stringIcSt11char_traitsIcESaIcEEEELb0EEEELb1EEC2Ev:
.LFB4047:
	.cfi_startproc
	endbr64
	pushq	%rbp
	.cfi_def_cfa_offset 16
	.cfi_offset 6, -16
	movq	%rsp, %rbp
	.cfi_def_cfa_register 6
	subq	$16, %rsp
	movq	%rdi, -8(%rbp)
	movq	-8(%rbp), %rax
	movq	%rax, %rdi
	call	_ZNSaINSt8__detail10_Hash_nodeISt4pairIKmNSt7__cxx1112basic_stringIcSt11char_traitsIcESaIcEEEELb0EEEEC2Ev
	nop
	leave
	.cfi_def_cfa 7, 8
	ret
	.cfi_endproc
.LFE4047:
	.size	_ZNSt8__detail21_Hashtable_ebo_helperILi0ESaINS_10_Hash_nodeISt4pairIKmNSt7__cxx1112basic_stringIcSt11char_traitsIcESaIcEEEELb0EEEELb1EEC2Ev, .-_ZNSt8__detail21_Hashtable_ebo_helperILi0ESaINS_10_Hash_nodeISt4pairIKmNSt7__cxx1112basic_stringIcSt11char_traitsIcESaIcEEEELb0EEEELb1EEC2Ev
	.weak	_ZNSt8__detail21_Hashtable_ebo_helperILi0ESaINS_10_Hash_nodeISt4pairIKmNSt7__cxx1112basic_stringIcSt11char_traitsIcESaIcEEEELb0EEEELb1EEC1Ev
	.set	_ZNSt8__detail21_Hashtable_ebo_helperILi0ESaINS_10_Hash_nodeISt4pairIKmNSt7__cxx1112basic_stringIcSt11char_traitsIcESaIcEEEELb0EEEELb1EEC1Ev,_ZNSt8__detail21_Hashtable_ebo_helperILi0ESaINS_10_Hash_nodeISt4pairIKmNSt7__cxx1112basic_stringIcSt11char_traitsIcESaIcEEEELb0EEEELb1EEC2Ev
	.section	.text._ZNKSt6vectorINSt7__cxx1112basic_stringIcSt11char_traitsIcESaIcEEESaIS5_EE5beginEv,"axG",@progbits,_ZNKSt6vectorINSt7__cxx1112basic_stringIcSt11char_traitsIcESaIcEEESaIS5_EE5beginEv,comdat
	.align 2
	.weak	_ZNKSt6vectorINSt7__cxx1112basic_stringIcSt11char_traitsIcESaIcEEESaIS5_EE5beginEv
	.type	_ZNKSt6vectorINSt7__cxx1112basic_stringIcSt11char_traitsIcESaIcEEESaIS5_EE5beginEv, @function
_ZNKSt6vectorINSt7__cxx1112basic_stringIcSt11char_traitsIcESaIcEEESaIS5_EE5beginEv:
.LFB4055:
	.cfi_startproc
	endbr64
	pushq	%rbp
	.cfi_def_cfa_offset 16
	.cfi_offset 6, -16
	movq	%rsp, %rbp
	.cfi_def_cfa_register 6
	subq	$32, %rsp
	movq	%rdi, -24(%rbp)
	movq	%fs:40, %rax
	movq	%rax, -8(%rbp)
	xorl	%eax, %eax
	movq	-24(%rbp), %rdx
	leaq	-16(%rbp), %rax
	movq	%rdx, %rsi
	movq	%rax, %rdi
	call	_ZN9__gnu_cxx17__normal_iteratorIPKNSt7__cxx1112basic_stringIcSt11char_traitsIcESaIcEEESt6vectorIS6_SaIS6_EEEC1ERKS8_
	movq	-16(%rbp), %rax
	movq	-8(%rbp), %rdx
	subq	%fs:40, %rdx
	je	.L271
	call	__stack_chk_fail@PLT
.L271:
	leave
	.cfi_def_cfa 7, 8
	ret
	.cfi_endproc
.LFE4055:
	.size	_ZNKSt6vectorINSt7__cxx1112basic_stringIcSt11char_traitsIcESaIcEEESaIS5_EE5beginEv, .-_ZNKSt6vectorINSt7__cxx1112basic_stringIcSt11char_traitsIcESaIcEEESaIS5_EE5beginEv
	.section	.text._ZNKSt6vectorINSt7__cxx1112basic_stringIcSt11char_traitsIcESaIcEEESaIS5_EE3endEv,"axG",@progbits,_ZNKSt6vectorINSt7__cxx1112basic_stringIcSt11char_traitsIcESaIcEEESaIS5_EE3endEv,comdat
	.align 2
	.weak	_ZNKSt6vectorINSt7__cxx1112basic_stringIcSt11char_traitsIcESaIcEEESaIS5_EE3endEv
	.type	_ZNKSt6vectorINSt7__cxx1112basic_stringIcSt11char_traitsIcESaIcEEESaIS5_EE3endEv, @function
_ZNKSt6vectorINSt7__cxx1112basic_stringIcSt11char_traitsIcESaIcEEESaIS5_EE3endEv:
.LFB4056:
	.cfi_startproc
	endbr64
	pushq	%rbp
	.cfi_def_cfa_offset 16
	.cfi_offset 6, -16
	movq	%rsp, %rbp
	.cfi_def_cfa_register 6
	subq	$32, %rsp
	movq	%rdi, -24(%rbp)
	movq	%fs:40, %rax
	movq	%rax, -8(%rbp)
	xorl	%eax, %eax
	movq	-24(%rbp), %rax
	leaq	8(%rax), %rdx
	leaq	-16(%rbp), %rax
	movq	%rdx, %rsi
	movq	%rax, %rdi
	call	_ZN9__gnu_cxx17__normal_iteratorIPKNSt7__cxx1112basic_stringIcSt11char_traitsIcESaIcEEESt6vectorIS6_SaIS6_EEEC1ERKS8_
	movq	-16(%rbp), %rax
	movq	-8(%rbp), %rdx
	subq	%fs:40, %rdx
	je	.L274
	call	__stack_chk_fail@PLT
.L274:
	leave
	.cfi_def_cfa 7, 8
	ret
	.cfi_endproc
.LFE4056:
	.size	_ZNKSt6vectorINSt7__cxx1112basic_stringIcSt11char_traitsIcESaIcEEESaIS5_EE3endEv, .-_ZNKSt6vectorINSt7__cxx1112basic_stringIcSt11char_traitsIcESaIcEEESaIS5_EE3endEv
	.section	.text._ZN9__gnu_cxxneIPKNSt7__cxx1112basic_stringIcSt11char_traitsIcESaIcEEESt6vectorIS6_SaIS6_EEEEbRKNS_17__normal_iteratorIT_T0_EESH_,"axG",@progbits,_ZN9__gnu_cxxneIPKNSt7__cxx1112basic_stringIcSt11char_traitsIcESaIcEEESt6vectorIS6_SaIS6_EEEEbRKNS_17__normal_iteratorIT_T0_EESH_,comdat
	.weak	_ZN9__gnu_cxxneIPKNSt7__cxx1112basic_stringIcSt11char_traitsIcESaIcEEESt6vectorIS6_SaIS6_EEEEbRKNS_17__normal_iteratorIT_T0_EESH_
	.type	_ZN9__gnu_cxxneIPKNSt7__cxx1112basic_stringIcSt11char_traitsIcESaIcEEESt6vectorIS6_SaIS6_EEEEbRKNS_17__normal_iteratorIT_T0_EESH_, @function
_ZN9__gnu_cxxneIPKNSt7__cxx1112basic_stringIcSt11char_traitsIcESaIcEEESt6vectorIS6_SaIS6_EEEEbRKNS_17__normal_iteratorIT_T0_EESH_:
.LFB4057:
	.cfi_startproc
	endbr64
	pushq	%rbp
	.cfi_def_cfa_offset 16
	.cfi_offset 6, -16
	movq	%rsp, %rbp
	.cfi_def_cfa_register 6
	pushq	%rbx
	subq	$24, %rsp
	.cfi_offset 3, -24
	movq	%rdi, -24(%rbp)
	movq	%rsi, -32(%rbp)
	movq	-24(%rbp), %rax
	movq	%rax, %rdi
	call	_ZNK9__gnu_cxx17__normal_iteratorIPKNSt7__cxx1112basic_stringIcSt11char_traitsIcESaIcEEESt6vectorIS6_SaIS6_EEE4baseEv
	movq	(%rax), %rbx
	movq	-32(%rbp), %rax
	movq	%rax, %rdi
	call	_ZNK9__gnu_cxx17__normal_iteratorIPKNSt7__cxx1112basic_stringIcSt11char_traitsIcESaIcEEESt6vectorIS6_SaIS6_EEE4baseEv
	movq	(%rax), %rax
	cmpq	%rax, %rbx
	setne	%al
	movq	-8(%rbp), %rbx
	leave
	.cfi_def_cfa 7, 8
	ret
	.cfi_endproc
.LFE4057:
	.size	_ZN9__gnu_cxxneIPKNSt7__cxx1112basic_stringIcSt11char_traitsIcESaIcEEESt6vectorIS6_SaIS6_EEEEbRKNS_17__normal_iteratorIT_T0_EESH_, .-_ZN9__gnu_cxxneIPKNSt7__cxx1112basic_stringIcSt11char_traitsIcESaIcEEESt6vectorIS6_SaIS6_EEEEbRKNS_17__normal_iteratorIT_T0_EESH_
	.section	.text._ZN9__gnu_cxx17__normal_iteratorIPKNSt7__cxx1112basic_stringIcSt11char_traitsIcESaIcEEESt6vectorIS6_SaIS6_EEEppEv,"axG",@progbits,_ZN9__gnu_cxx17__normal_iteratorIPKNSt7__cxx1112basic_stringIcSt11char_traitsIcESaIcEEESt6vectorIS6_SaIS6_EEEppEv,comdat
	.align 2
	.weak	_ZN9__gnu_cxx17__normal_iteratorIPKNSt7__cxx1112basic_stringIcSt11char_traitsIcESaIcEEESt6vectorIS6_SaIS6_EEEppEv
	.type	_ZN9__gnu_cxx17__normal_iteratorIPKNSt7__cxx1112basic_stringIcSt11char_traitsIcESaIcEEESt6vectorIS6_SaIS6_EEEppEv, @function
_ZN9__gnu_cxx17__normal_iteratorIPKNSt7__cxx1112basic_stringIcSt11char_traitsIcESaIcEEESt6vectorIS6_SaIS6_EEEppEv:
.LFB4058:
	.cfi_startproc
	endbr64
	pushq	%rbp
	.cfi_def_cfa_offset 16
	.cfi_offset 6, -16
	movq	%rsp, %rbp
	.cfi_def_cfa_register 6
	movq	%rdi, -8(%rbp)
	movq	-8(%rbp), %rax
	movq	(%rax), %rax
	leaq	32(%rax), %rdx
	movq	-8(%rbp), %rax
	movq	%rdx, (%rax)
	movq	-8(%rbp), %rax
	popq	%rbp
	.cfi_def_cfa 7, 8
	ret
	.cfi_endproc
.LFE4058:
	.size	_ZN9__gnu_cxx17__normal_iteratorIPKNSt7__cxx1112basic_stringIcSt11char_traitsIcESaIcEEESt6vectorIS6_SaIS6_EEEppEv, .-_ZN9__gnu_cxx17__normal_iteratorIPKNSt7__cxx1112basic_stringIcSt11char_traitsIcESaIcEEESt6vectorIS6_SaIS6_EEEppEv
	.section	.text._ZNK9__gnu_cxx17__normal_iteratorIPKNSt7__cxx1112basic_stringIcSt11char_traitsIcESaIcEEESt6vectorIS6_SaIS6_EEEdeEv,"axG",@progbits,_ZNK9__gnu_cxx17__normal_iteratorIPKNSt7__cxx1112basic_stringIcSt11char_traitsIcESaIcEEESt6vectorIS6_SaIS6_EEEdeEv,comdat
	.align 2
	.weak	_ZNK9__gnu_cxx17__normal_iteratorIPKNSt7__cxx1112basic_stringIcSt11char_traitsIcESaIcEEESt6vectorIS6_SaIS6_EEEdeEv
	.type	_ZNK9__gnu_cxx17__normal_iteratorIPKNSt7__cxx1112basic_stringIcSt11char_traitsIcESaIcEEESt6vectorIS6_SaIS6_EEEdeEv, @function
_ZNK9__gnu_cxx17__normal_iteratorIPKNSt7__cxx1112basic_stringIcSt11char_traitsIcESaIcEEESt6vectorIS6_SaIS6_EEEdeEv:
.LFB4059:
	.cfi_startproc
	endbr64
	pushq	%rbp
	.cfi_def_cfa_offset 16
	.cfi_offset 6, -16
	movq	%rsp, %rbp
	.cfi_def_cfa_register 6
	movq	%rdi, -8(%rbp)
	movq	-8(%rbp), %rax
	movq	(%rax), %rax
	popq	%rbp
	.cfi_def_cfa 7, 8
	ret
	.cfi_endproc
.LFE4059:
	.size	_ZNK9__gnu_cxx17__normal_iteratorIPKNSt7__cxx1112basic_stringIcSt11char_traitsIcESaIcEEESt6vectorIS6_SaIS6_EEEdeEv, .-_ZNK9__gnu_cxx17__normal_iteratorIPKNSt7__cxx1112basic_stringIcSt11char_traitsIcESaIcEEESt6vectorIS6_SaIS6_EEEdeEv
	.section	.text._ZNSt7__cxx1112basic_stringIcSt11char_traitsIcESaIcEEC2IS3_EEPKcRKS3_,"axG",@progbits,_ZNSt7__cxx1112basic_stringIcSt11char_traitsIcESaIcEEC5IS3_EEPKcRKS3_,comdat
	.align 2
	.weak	_ZNSt7__cxx1112basic_stringIcSt11char_traitsIcESaIcEEC2IS3_EEPKcRKS3_
	.type	_ZNSt7__cxx1112basic_stringIcSt11char_traitsIcESaIcEEC2IS3_EEPKcRKS3_, @function
_ZNSt7__cxx1112basic_stringIcSt11char_traitsIcESaIcEEC2IS3_EEPKcRKS3_:
.LFB4061:
	.cfi_startproc
	.cfi_personality 0x9b,DW.ref.__gxx_personality_v0
	.cfi_lsda 0x1b,.LLSDA4061
	endbr64
	pushq	%rbp
	.cfi_def_cfa_offset 16
	.cfi_offset 6, -16
	movq	%rsp, %rbp
	.cfi_def_cfa_register 6
	pushq	%rbx
	subq	$72, %rsp
	.cfi_offset 3, -24
	movq	%rdi, -56(%rbp)
	movq	%rsi, -64(%rbp)
	movq	%rdx, -72(%rbp)
	movq	%fs:40, %rax
	movq	%rax, -24(%rbp)
	xorl	%eax, %eax
	movq	-56(%rbp), %rbx
	movq	-56(%rbp), %rax
	movq	%rax, %rdi
.LEHB50:
	call	_ZNSt7__cxx1112basic_stringIcSt11char_traitsIcESaIcEE13_M_local_dataEv@PLT
	movq	%rax, %rcx
	movq	-72(%rbp), %rax
	movq	%rax, %rdx
	movq	%rcx, %rsi
	movq	%rbx, %rdi
	call	_ZNSt7__cxx1112basic_stringIcSt11char_traitsIcESaIcEE12_Alloc_hiderC1EPcRKS3_@PLT
.LEHE50:
	cmpq	$0, -64(%rbp)
	je	.L282
	movq	-64(%rbp), %rax
	movq	%rax, %rdi
.LEHB51:
	call	_ZNSt11char_traitsIcE6lengthEPKc
	movq	-64(%rbp), %rdx
	addq	%rdx, %rax
	jmp	.L283
.L282:
	movl	$1, %eax
.L283:
	movq	%rax, -32(%rbp)
	movq	-32(%rbp), %rdx
	movq	-64(%rbp), %rcx
	movq	-56(%rbp), %rax
	movq	%rcx, %rsi
	movq	%rax, %rdi
	call	_ZNSt7__cxx1112basic_stringIcSt11char_traitsIcESaIcEE12_M_constructIPKcEEvT_S8_St20forward_iterator_tag
.LEHE51:
	jmp	.L287
.L286:
	endbr64
	movq	%rax, %rbx
	movq	-56(%rbp), %rax
	movq	%rax, %rdi
	call	_ZNSt7__cxx1112basic_stringIcSt11char_traitsIcESaIcEE12_Alloc_hiderD1Ev
	movq	%rbx, %rax
	movq	%rax, %rdi
.LEHB52:
	call	_Unwind_Resume@PLT
.LEHE52:
.L287:
	movq	-24(%rbp), %rax
	subq	%fs:40, %rax
	je	.L285
	call	__stack_chk_fail@PLT
.L285:
	movq	-8(%rbp), %rbx
	leave
	.cfi_def_cfa 7, 8
	ret
	.cfi_endproc
.LFE4061:
	.section	.gcc_except_table
.LLSDA4061:
	.byte	0xff
	.byte	0xff
	.byte	0x1
	.uleb128 .LLSDACSE4061-.LLSDACSB4061
.LLSDACSB4061:
	.uleb128 .LEHB50-.LFB4061
	.uleb128 .LEHE50-.LEHB50
	.uleb128 0
	.uleb128 0
	.uleb128 .LEHB51-.LFB4061
	.uleb128 .LEHE51-.LEHB51
	.uleb128 .L286-.LFB4061
	.uleb128 0
	.uleb128 .LEHB52-.LFB4061
	.uleb128 .LEHE52-.LEHB52
	.uleb128 0
	.uleb128 0
.LLSDACSE4061:
	.section	.text._ZNSt7__cxx1112basic_stringIcSt11char_traitsIcESaIcEEC2IS3_EEPKcRKS3_,"axG",@progbits,_ZNSt7__cxx1112basic_stringIcSt11char_traitsIcESaIcEEC5IS3_EEPKcRKS3_,comdat
	.size	_ZNSt7__cxx1112basic_stringIcSt11char_traitsIcESaIcEEC2IS3_EEPKcRKS3_, .-_ZNSt7__cxx1112basic_stringIcSt11char_traitsIcESaIcEEC2IS3_EEPKcRKS3_
	.weak	_ZNSt7__cxx1112basic_stringIcSt11char_traitsIcESaIcEEC1IS3_EEPKcRKS3_
	.set	_ZNSt7__cxx1112basic_stringIcSt11char_traitsIcESaIcEEC1IS3_EEPKcRKS3_,_ZNSt7__cxx1112basic_stringIcSt11char_traitsIcESaIcEEC2IS3_EEPKcRKS3_
	.section	.text._ZNSt13unordered_mapImNSt7__cxx1112basic_stringIcSt11char_traitsIcESaIcEEESt4hashImESt8equal_toImESaISt4pairIKmS5_EEE7emplaceIJRmS5_EEESA_INSt8__detail14_Node_iteratorISC_Lb0ELb0EEEbEDpOT_,"axG",@progbits,_ZNSt13unordered_mapImNSt7__cxx1112basic_stringIcSt11char_traitsIcESaIcEEESt4hashImESt8equal_toImESaISt4pairIKmS5_EEE7emplaceIJRmS5_EEESA_INSt8__detail14_Node_iteratorISC_Lb0ELb0EEEbEDpOT_,comdat
	.align 2
	.weak	_ZNSt13unordered_mapImNSt7__cxx1112basic_stringIcSt11char_traitsIcESaIcEEESt4hashImESt8equal_toImESaISt4pairIKmS5_EEE7emplaceIJRmS5_EEESA_INSt8__detail14_Node_iteratorISC_Lb0ELb0EEEbEDpOT_
	.type	_ZNSt13unordered_mapImNSt7__cxx1112basic_stringIcSt11char_traitsIcESaIcEEESt4hashImESt8equal_toImESaISt4pairIKmS5_EEE7emplaceIJRmS5_EEESA_INSt8__detail14_Node_iteratorISC_Lb0ELb0EEEbEDpOT_, @function
_ZNSt13unordered_mapImNSt7__cxx1112basic_stringIcSt11char_traitsIcESaIcEEESt4hashImESt8equal_toImESaISt4pairIKmS5_EEE7emplaceIJRmS5_EEESA_INSt8__detail14_Node_iteratorISC_Lb0ELb0EEEbEDpOT_:
.LFB4063:
	.cfi_startproc
	endbr64
	pushq	%rbp
	.cfi_def_cfa_offset 16
	.cfi_offset 6, -16
	movq	%rsp, %rbp
	.cfi_def_cfa_register 6
	pushq	%r12
	pushq	%rbx
	subq	$32, %rsp
	.cfi_offset 12, -24
	.cfi_offset 3, -32
	movq	%rdi, -24(%rbp)
	movq	%rsi, -32(%rbp)
	movq	%rdx, -40(%rbp)
	movq	-24(%rbp), %rbx
	movq	-40(%rbp), %rax
	movq	%rax, %rdi
	call	_ZSt7forwardINSt7__cxx1112basic_stringIcSt11char_traitsIcESaIcEEEEOT_RNSt16remove_referenceIS6_E4typeE
	movq	%rax, %r12
	movq	-32(%rbp), %rax
	movq	%rax, %rdi
	call	_ZSt7forwardIRmEOT_RNSt16remove_referenceIS1_E4typeE
	movq	%r12, %rdx
	movq	%rax, %rsi
	movq	%rbx, %rdi
	call	_ZNSt10_HashtableImSt4pairIKmNSt7__cxx1112basic_stringIcSt11char_traitsIcESaIcEEEESaIS8_ENSt8__detail10_Select1stESt8equal_toImESt4hashImENSA_18_Mod_range_hashingENSA_20_Default_ranged_hashENSA_20_Prime_rehash_policyENSA_17_Hashtable_traitsILb0ELb0ELb1EEEE7emplaceIJRmS7_EEES0_INSA_14_Node_iteratorIS8_Lb0ELb0EEEbEDpOT_
	addq	$32, %rsp
	popq	%rbx
	popq	%r12
	popq	%rbp
	.cfi_def_cfa 7, 8
	ret
	.cfi_endproc
.LFE4063:
	.size	_ZNSt13unordered_mapImNSt7__cxx1112basic_stringIcSt11char_traitsIcESaIcEEESt4hashImESt8equal_toImESaISt4pairIKmS5_EEE7emplaceIJRmS5_EEESA_INSt8__detail14_Node_iteratorISC_Lb0ELb0EEEbEDpOT_, .-_ZNSt13unordered_mapImNSt7__cxx1112basic_stringIcSt11char_traitsIcESaIcEEESt4hashImESt8equal_toImESaISt4pairIKmS5_EEE7emplaceIJRmS5_EEESA_INSt8__detail14_Node_iteratorISC_Lb0ELb0EEEbEDpOT_
	.section	.text._ZNSt13unordered_mapImNSt7__cxx1112basic_stringIcSt11char_traitsIcESaIcEEESt4hashImESt8equal_toImESaISt4pairIKmS5_EEE4findERSB_,"axG",@progbits,_ZNSt13unordered_mapImNSt7__cxx1112basic_stringIcSt11char_traitsIcESaIcEEESt4hashImESt8equal_toImESaISt4pairIKmS5_EEE4findERSB_,comdat
	.align 2
	.weak	_ZNSt13unordered_mapImNSt7__cxx1112basic_stringIcSt11char_traitsIcESaIcEEESt4hashImESt8equal_toImESaISt4pairIKmS5_EEE4findERSB_
	.type	_ZNSt13unordered_mapImNSt7__cxx1112basic_stringIcSt11char_traitsIcESaIcEEESt4hashImESt8equal_toImESaISt4pairIKmS5_EEE4findERSB_, @function
_ZNSt13unordered_mapImNSt7__cxx1112basic_stringIcSt11char_traitsIcESaIcEEESt4hashImESt8equal_toImESaISt4pairIKmS5_EEE4findERSB_:
.LFB4064:
	.cfi_startproc
	endbr64
	pushq	%rbp
	.cfi_def_cfa_offset 16
	.cfi_offset 6, -16
	movq	%rsp, %rbp
	.cfi_def_cfa_register 6
	subq	$16, %rsp
	movq	%rdi, -8(%rbp)
	movq	%rsi, -16(%rbp)
	movq	-8(%rbp), %rax
	movq	-16(%rbp), %rdx
	movq	%rdx, %rsi
	movq	%rax, %rdi
	call	_ZNSt10_HashtableImSt4pairIKmNSt7__cxx1112basic_stringIcSt11char_traitsIcESaIcEEEESaIS8_ENSt8__detail10_Select1stESt8equal_toImESt4hashImENSA_18_Mod_range_hashingENSA_20_Default_ranged_hashENSA_20_Prime_rehash_policyENSA_17_Hashtable_traitsILb0ELb0ELb1EEEE4findERS1_
	leave
	.cfi_def_cfa 7, 8
	ret
	.cfi_endproc
.LFE4064:
	.size	_ZNSt13unordered_mapImNSt7__cxx1112basic_stringIcSt11char_traitsIcESaIcEEESt4hashImESt8equal_toImESaISt4pairIKmS5_EEE4findERSB_, .-_ZNSt13unordered_mapImNSt7__cxx1112basic_stringIcSt11char_traitsIcESaIcEEESt4hashImESt8equal_toImESaISt4pairIKmS5_EEE4findERSB_
	.section	.text._ZNSt13unordered_mapImNSt7__cxx1112basic_stringIcSt11char_traitsIcESaIcEEESt4hashImESt8equal_toImESaISt4pairIKmS5_EEE3endEv,"axG",@progbits,_ZNSt13unordered_mapImNSt7__cxx1112basic_stringIcSt11char_traitsIcESaIcEEESt4hashImESt8equal_toImESaISt4pairIKmS5_EEE3endEv,comdat
	.align 2
	.weak	_ZNSt13unordered_mapImNSt7__cxx1112basic_stringIcSt11char_traitsIcESaIcEEESt4hashImESt8equal_toImESaISt4pairIKmS5_EEE3endEv
	.type	_ZNSt13unordered_mapImNSt7__cxx1112basic_stringIcSt11char_traitsIcESaIcEEESt4hashImESt8equal_toImESaISt4pairIKmS5_EEE3endEv, @function
_ZNSt13unordered_mapImNSt7__cxx1112basic_stringIcSt11char_traitsIcESaIcEEESt4hashImESt8equal_toImESaISt4pairIKmS5_EEE3endEv:
.LFB4065:
	.cfi_startproc
	endbr64
	pushq	%rbp
	.cfi_def_cfa_offset 16
	.cfi_offset 6, -16
	movq	%rsp, %rbp
	.cfi_def_cfa_register 6
	subq	$16, %rsp
	movq	%rdi, -8(%rbp)
	movq	-8(%rbp), %rax
	movq	%rax, %rdi
	call	_ZNSt10_HashtableImSt4pairIKmNSt7__cxx1112basic_stringIcSt11char_traitsIcESaIcEEEESaIS8_ENSt8__detail10_Select1stESt8equal_toImESt4hashImENSA_18_Mod_range_hashingENSA_20_Default_ranged_hashENSA_20_Prime_rehash_policyENSA_17_Hashtable_traitsILb0ELb0ELb1EEEE3endEv
	leave
	.cfi_def_cfa 7, 8
	ret
	.cfi_endproc
.LFE4065:
	.size	_ZNSt13unordered_mapImNSt7__cxx1112basic_stringIcSt11char_traitsIcESaIcEEESt4hashImESt8equal_toImESaISt4pairIKmS5_EEE3endEv, .-_ZNSt13unordered_mapImNSt7__cxx1112basic_stringIcSt11char_traitsIcESaIcEEESt4hashImESt8equal_toImESaISt4pairIKmS5_EEE3endEv
	.section	.text._ZNSt8__detaileqERKNS_19_Node_iterator_baseISt4pairIKmNSt7__cxx1112basic_stringIcSt11char_traitsIcESaIcEEEELb0EEESC_,"axG",@progbits,_ZNSt8__detaileqERKNS_19_Node_iterator_baseISt4pairIKmNSt7__cxx1112basic_stringIcSt11char_traitsIcESaIcEEEELb0EEESC_,comdat
	.weak	_ZNSt8__detaileqERKNS_19_Node_iterator_baseISt4pairIKmNSt7__cxx1112basic_stringIcSt11char_traitsIcESaIcEEEELb0EEESC_
	.type	_ZNSt8__detaileqERKNS_19_Node_iterator_baseISt4pairIKmNSt7__cxx1112basic_stringIcSt11char_traitsIcESaIcEEEELb0EEESC_, @function
_ZNSt8__detaileqERKNS_19_Node_iterator_baseISt4pairIKmNSt7__cxx1112basic_stringIcSt11char_traitsIcESaIcEEEELb0EEESC_:
.LFB4066:
	.cfi_startproc
	endbr64
	pushq	%rbp
	.cfi_def_cfa_offset 16
	.cfi_offset 6, -16
	movq	%rsp, %rbp
	.cfi_def_cfa_register 6
	movq	%rdi, -8(%rbp)
	movq	%rsi, -16(%rbp)
	movq	-8(%rbp), %rax
	movq	(%rax), %rdx
	movq	-16(%rbp), %rax
	movq	(%rax), %rax
	cmpq	%rax, %rdx
	sete	%al
	popq	%rbp
	.cfi_def_cfa 7, 8
	ret
	.cfi_endproc
.LFE4066:
	.size	_ZNSt8__detaileqERKNS_19_Node_iterator_baseISt4pairIKmNSt7__cxx1112basic_stringIcSt11char_traitsIcESaIcEEEELb0EEESC_, .-_ZNSt8__detaileqERKNS_19_Node_iterator_baseISt4pairIKmNSt7__cxx1112basic_stringIcSt11char_traitsIcESaIcEEEELb0EEESC_
	.section	.text._ZNKSt8__detail14_Node_iteratorISt4pairIKmNSt7__cxx1112basic_stringIcSt11char_traitsIcESaIcEEEELb0ELb0EEptEv,"axG",@progbits,_ZNKSt8__detail14_Node_iteratorISt4pairIKmNSt7__cxx1112basic_stringIcSt11char_traitsIcESaIcEEEELb0ELb0EEptEv,comdat
	.align 2
	.weak	_ZNKSt8__detail14_Node_iteratorISt4pairIKmNSt7__cxx1112basic_stringIcSt11char_traitsIcESaIcEEEELb0ELb0EEptEv
	.type	_ZNKSt8__detail14_Node_iteratorISt4pairIKmNSt7__cxx1112basic_stringIcSt11char_traitsIcESaIcEEEELb0ELb0EEptEv, @function
_ZNKSt8__detail14_Node_iteratorISt4pairIKmNSt7__cxx1112basic_stringIcSt11char_traitsIcESaIcEEEELb0ELb0EEptEv:
.LFB4067:
	.cfi_startproc
	endbr64
	pushq	%rbp
	.cfi_def_cfa_offset 16
	.cfi_offset 6, -16
	movq	%rsp, %rbp
	.cfi_def_cfa_register 6
	subq	$16, %rsp
	movq	%rdi, -8(%rbp)
	movq	-8(%rbp), %rax
	movq	(%rax), %rax
	addq	$8, %rax
	movq	%rax, %rdi
	call	_ZNSt8__detail21_Hash_node_value_baseISt4pairIKmNSt7__cxx1112basic_stringIcSt11char_traitsIcESaIcEEEEE9_M_valptrEv
	leave
	.cfi_def_cfa 7, 8
	ret
	.cfi_endproc
.LFE4067:
	.size	_ZNKSt8__detail14_Node_iteratorISt4pairIKmNSt7__cxx1112basic_stringIcSt11char_traitsIcESaIcEEEELb0ELb0EEptEv, .-_ZNKSt8__detail14_Node_iteratorISt4pairIKmNSt7__cxx1112basic_stringIcSt11char_traitsIcESaIcEEEELb0ELb0EEptEv
	.section	.text._ZNSt8__detail21_Hashtable_ebo_helperILi1ESt4hashIiELb1EEC2Ev,"axG",@progbits,_ZNSt8__detail21_Hashtable_ebo_helperILi1ESt4hashIiELb1EEC5Ev,comdat
	.align 2
	.weak	_ZNSt8__detail21_Hashtable_ebo_helperILi1ESt4hashIiELb1EEC2Ev
	.type	_ZNSt8__detail21_Hashtable_ebo_helperILi1ESt4hashIiELb1EEC2Ev, @function
_ZNSt8__detail21_Hashtable_ebo_helperILi1ESt4hashIiELb1EEC2Ev:
.LFB4069:
	.cfi_startproc
	endbr64
	pushq	%rbp
	.cfi_def_cfa_offset 16
	.cfi_offset 6, -16
	movq	%rsp, %rbp
	.cfi_def_cfa_register 6
	movq	%rdi, -8(%rbp)
	nop
	popq	%rbp
	.cfi_def_cfa 7, 8
	ret
	.cfi_endproc
.LFE4069:
	.size	_ZNSt8__detail21_Hashtable_ebo_helperILi1ESt4hashIiELb1EEC2Ev, .-_ZNSt8__detail21_Hashtable_ebo_helperILi1ESt4hashIiELb1EEC2Ev
	.weak	_ZNSt8__detail21_Hashtable_ebo_helperILi1ESt4hashIiELb1EEC1Ev
	.set	_ZNSt8__detail21_Hashtable_ebo_helperILi1ESt4hashIiELb1EEC1Ev,_ZNSt8__detail21_Hashtable_ebo_helperILi1ESt4hashIiELb1EEC2Ev
	.section	.text._ZNSt8__detail21_Hashtable_ebo_helperILi0ESt8equal_toIiELb1EEC2Ev,"axG",@progbits,_ZNSt8__detail21_Hashtable_ebo_helperILi0ESt8equal_toIiELb1EEC5Ev,comdat
	.align 2
	.weak	_ZNSt8__detail21_Hashtable_ebo_helperILi0ESt8equal_toIiELb1EEC2Ev
	.type	_ZNSt8__detail21_Hashtable_ebo_helperILi0ESt8equal_toIiELb1EEC2Ev, @function
_ZNSt8__detail21_Hashtable_ebo_helperILi0ESt8equal_toIiELb1EEC2Ev:
.LFB4072:
	.cfi_startproc
	endbr64
	pushq	%rbp
	.cfi_def_cfa_offset 16
	.cfi_offset 6, -16
	movq	%rsp, %rbp
	.cfi_def_cfa_register 6
	movq	%rdi, -8(%rbp)
	nop
	popq	%rbp
	.cfi_def_cfa 7, 8
	ret
	.cfi_endproc
.LFE4072:
	.size	_ZNSt8__detail21_Hashtable_ebo_helperILi0ESt8equal_toIiELb1EEC2Ev, .-_ZNSt8__detail21_Hashtable_ebo_helperILi0ESt8equal_toIiELb1EEC2Ev
	.weak	_ZNSt8__detail21_Hashtable_ebo_helperILi0ESt8equal_toIiELb1EEC1Ev
	.set	_ZNSt8__detail21_Hashtable_ebo_helperILi0ESt8equal_toIiELb1EEC1Ev,_ZNSt8__detail21_Hashtable_ebo_helperILi0ESt8equal_toIiELb1EEC2Ev
	.section	.text._ZNSt8__detail21_Hashtable_ebo_helperILi0ESaINS_10_Hash_nodeISt4pairIKicELb0EEEELb1EEC2Ev,"axG",@progbits,_ZNSt8__detail21_Hashtable_ebo_helperILi0ESaINS_10_Hash_nodeISt4pairIKicELb0EEEELb1EEC5Ev,comdat
	.align 2
	.weak	_ZNSt8__detail21_Hashtable_ebo_helperILi0ESaINS_10_Hash_nodeISt4pairIKicELb0EEEELb1EEC2Ev
	.type	_ZNSt8__detail21_Hashtable_ebo_helperILi0ESaINS_10_Hash_nodeISt4pairIKicELb0EEEELb1EEC2Ev, @function
_ZNSt8__detail21_Hashtable_ebo_helperILi0ESaINS_10_Hash_nodeISt4pairIKicELb0EEEELb1EEC2Ev:
.LFB4075:
	.cfi_startproc
	endbr64
	pushq	%rbp
	.cfi_def_cfa_offset 16
	.cfi_offset 6, -16
	movq	%rsp, %rbp
	.cfi_def_cfa_register 6
	subq	$16, %rsp
	movq	%rdi, -8(%rbp)
	movq	-8(%rbp), %rax
	movq	%rax, %rdi
	call	_ZNSaINSt8__detail10_Hash_nodeISt4pairIKicELb0EEEEC2Ev
	nop
	leave
	.cfi_def_cfa 7, 8
	ret
	.cfi_endproc
.LFE4075:
	.size	_ZNSt8__detail21_Hashtable_ebo_helperILi0ESaINS_10_Hash_nodeISt4pairIKicELb0EEEELb1EEC2Ev, .-_ZNSt8__detail21_Hashtable_ebo_helperILi0ESaINS_10_Hash_nodeISt4pairIKicELb0EEEELb1EEC2Ev
	.weak	_ZNSt8__detail21_Hashtable_ebo_helperILi0ESaINS_10_Hash_nodeISt4pairIKicELb0EEEELb1EEC1Ev
	.set	_ZNSt8__detail21_Hashtable_ebo_helperILi0ESaINS_10_Hash_nodeISt4pairIKicELb0EEEELb1EEC1Ev,_ZNSt8__detail21_Hashtable_ebo_helperILi0ESaINS_10_Hash_nodeISt4pairIKicELb0EEEELb1EEC2Ev
	.section	.text._ZNSaINSt8__detail10_Hash_nodeISt4pairIKicELb0EEEED2Ev,"axG",@progbits,_ZNSaINSt8__detail10_Hash_nodeISt4pairIKicELb0EEEED5Ev,comdat
	.align 2
	.weak	_ZNSaINSt8__detail10_Hash_nodeISt4pairIKicELb0EEEED2Ev
	.type	_ZNSaINSt8__detail10_Hash_nodeISt4pairIKicELb0EEEED2Ev, @function
_ZNSaINSt8__detail10_Hash_nodeISt4pairIKicELb0EEEED2Ev:
.LFB4078:
	.cfi_startproc
	endbr64
	pushq	%rbp
	.cfi_def_cfa_offset 16
	.cfi_offset 6, -16
	movq	%rsp, %rbp
	.cfi_def_cfa_register 6
	subq	$16, %rsp
	movq	%rdi, -8(%rbp)
	movq	-8(%rbp), %rax
	movq	%rax, %rdi
	call	_ZN9__gnu_cxx13new_allocatorINSt8__detail10_Hash_nodeISt4pairIKicELb0EEEED2Ev
	nop
	leave
	.cfi_def_cfa 7, 8
	ret
	.cfi_endproc
.LFE4078:
	.size	_ZNSaINSt8__detail10_Hash_nodeISt4pairIKicELb0EEEED2Ev, .-_ZNSaINSt8__detail10_Hash_nodeISt4pairIKicELb0EEEED2Ev
	.weak	_ZNSaINSt8__detail10_Hash_nodeISt4pairIKicELb0EEEED1Ev
	.set	_ZNSaINSt8__detail10_Hash_nodeISt4pairIKicELb0EEEED1Ev,_ZNSaINSt8__detail10_Hash_nodeISt4pairIKicELb0EEEED2Ev
	.section	.text._ZNSt10_HashtableIiSt4pairIKicESaIS2_ENSt8__detail10_Select1stESt8equal_toIiESt4hashIiENS4_18_Mod_range_hashingENS4_20_Default_ranged_hashENS4_20_Prime_rehash_policyENS4_17_Hashtable_traitsILb0ELb0ELb1EEEED2Ev,"axG",@progbits,_ZNSt10_HashtableIiSt4pairIKicESaIS2_ENSt8__detail10_Select1stESt8equal_toIiESt4hashIiENS4_18_Mod_range_hashingENS4_20_Default_ranged_hashENS4_20_Prime_rehash_policyENS4_17_Hashtable_traitsILb0ELb0ELb1EEEED5Ev,comdat
	.align 2
	.weak	_ZNSt10_HashtableIiSt4pairIKicESaIS2_ENSt8__detail10_Select1stESt8equal_toIiESt4hashIiENS4_18_Mod_range_hashingENS4_20_Default_ranged_hashENS4_20_Prime_rehash_policyENS4_17_Hashtable_traitsILb0ELb0ELb1EEEED2Ev
	.type	_ZNSt10_HashtableIiSt4pairIKicESaIS2_ENSt8__detail10_Select1stESt8equal_toIiESt4hashIiENS4_18_Mod_range_hashingENS4_20_Default_ranged_hashENS4_20_Prime_rehash_policyENS4_17_Hashtable_traitsILb0ELb0ELb1EEEED2Ev, @function
_ZNSt10_HashtableIiSt4pairIKicESaIS2_ENSt8__detail10_Select1stESt8equal_toIiESt4hashIiENS4_18_Mod_range_hashingENS4_20_Default_ranged_hashENS4_20_Prime_rehash_policyENS4_17_Hashtable_traitsILb0ELb0ELb1EEEED2Ev:
.LFB4081:
	.cfi_startproc
	.cfi_personality 0x9b,DW.ref.__gxx_personality_v0
	.cfi_lsda 0x1b,.LLSDA4081
	endbr64
	pushq	%rbp
	.cfi_def_cfa_offset 16
	.cfi_offset 6, -16
	movq	%rsp, %rbp
	.cfi_def_cfa_register 6
	subq	$16, %rsp
	movq	%rdi, -8(%rbp)
	movq	-8(%rbp), %rax
	movq	%rax, %rdi
	call	_ZNSt10_HashtableIiSt4pairIKicESaIS2_ENSt8__detail10_Select1stESt8equal_toIiESt4hashIiENS4_18_Mod_range_hashingENS4_20_Default_ranged_hashENS4_20_Prime_rehash_policyENS4_17_Hashtable_traitsILb0ELb0ELb1EEEE5clearEv
	movq	-8(%rbp), %rax
	movq	%rax, %rdi
	call	_ZNSt10_HashtableIiSt4pairIKicESaIS2_ENSt8__detail10_Select1stESt8equal_toIiESt4hashIiENS4_18_Mod_range_hashingENS4_20_Default_ranged_hashENS4_20_Prime_rehash_policyENS4_17_Hashtable_traitsILb0ELb0ELb1EEEE21_M_deallocate_bucketsEv
	movq	-8(%rbp), %rax
	movq	%rax, %rdi
	call	_ZNSt8__detail16_Hashtable_allocISaINS_10_Hash_nodeISt4pairIKicELb0EEEEED2Ev
	nop
	leave
	.cfi_def_cfa 7, 8
	ret
	.cfi_endproc
.LFE4081:
	.section	.gcc_except_table
.LLSDA4081:
	.byte	0xff
	.byte	0xff
	.byte	0x1
	.uleb128 .LLSDACSE4081-.LLSDACSB4081
.LLSDACSB4081:
.LLSDACSE4081:
	.section	.text._ZNSt10_HashtableIiSt4pairIKicESaIS2_ENSt8__detail10_Select1stESt8equal_toIiESt4hashIiENS4_18_Mod_range_hashingENS4_20_Default_ranged_hashENS4_20_Prime_rehash_policyENS4_17_Hashtable_traitsILb0ELb0ELb1EEEED2Ev,"axG",@progbits,_ZNSt10_HashtableIiSt4pairIKicESaIS2_ENSt8__detail10_Select1stESt8equal_toIiESt4hashIiENS4_18_Mod_range_hashingENS4_20_Default_ranged_hashENS4_20_Prime_rehash_policyENS4_17_Hashtable_traitsILb0ELb0ELb1EEEED5Ev,comdat
	.size	_ZNSt10_HashtableIiSt4pairIKicESaIS2_ENSt8__detail10_Select1stESt8equal_toIiESt4hashIiENS4_18_Mod_range_hashingENS4_20_Default_ranged_hashENS4_20_Prime_rehash_policyENS4_17_Hashtable_traitsILb0ELb0ELb1EEEED2Ev, .-_ZNSt10_HashtableIiSt4pairIKicESaIS2_ENSt8__detail10_Select1stESt8equal_toIiESt4hashIiENS4_18_Mod_range_hashingENS4_20_Default_ranged_hashENS4_20_Prime_rehash_policyENS4_17_Hashtable_traitsILb0ELb0ELb1EEEED2Ev
	.weak	_ZNSt10_HashtableIiSt4pairIKicESaIS2_ENSt8__detail10_Select1stESt8equal_toIiESt4hashIiENS4_18_Mod_range_hashingENS4_20_Default_ranged_hashENS4_20_Prime_rehash_policyENS4_17_Hashtable_traitsILb0ELb0ELb1EEEED1Ev
	.set	_ZNSt10_HashtableIiSt4pairIKicESaIS2_ENSt8__detail10_Select1stESt8equal_toIiESt4hashIiENS4_18_Mod_range_hashingENS4_20_Default_ranged_hashENS4_20_Prime_rehash_policyENS4_17_Hashtable_traitsILb0ELb0ELb1EEEED1Ev,_ZNSt10_HashtableIiSt4pairIKicESaIS2_ENSt8__detail10_Select1stESt8equal_toIiESt4hashIiENS4_18_Mod_range_hashingENS4_20_Default_ranged_hashENS4_20_Prime_rehash_policyENS4_17_Hashtable_traitsILb0ELb0ELb1EEEED2Ev
	.section	.text._ZNSt13unordered_mapINSt7__cxx1112basic_stringIcSt11char_traitsIcESaIcEEESt6vectorIS5_SaIS5_EESt4hashIS5_ESt8equal_toIS5_ESaISt4pairIKS5_S8_EEEixEOS5_,"axG",@progbits,_ZNSt13unordered_mapINSt7__cxx1112basic_stringIcSt11char_traitsIcESaIcEEESt6vectorIS5_SaIS5_EESt4hashIS5_ESt8equal_toIS5_ESaISt4pairIKS5_S8_EEEixEOS5_,comdat
	.align 2
	.weak	_ZNSt13unordered_mapINSt7__cxx1112basic_stringIcSt11char_traitsIcESaIcEEESt6vectorIS5_SaIS5_EESt4hashIS5_ESt8equal_toIS5_ESaISt4pairIKS5_S8_EEEixEOS5_
	.type	_ZNSt13unordered_mapINSt7__cxx1112basic_stringIcSt11char_traitsIcESaIcEEESt6vectorIS5_SaIS5_EESt4hashIS5_ESt8equal_toIS5_ESaISt4pairIKS5_S8_EEEixEOS5_, @function
_ZNSt13unordered_mapINSt7__cxx1112basic_stringIcSt11char_traitsIcESaIcEEESt6vectorIS5_SaIS5_EESt4hashIS5_ESt8equal_toIS5_ESaISt4pairIKS5_S8_EEEixEOS5_:
.LFB4083:
	.cfi_startproc
	endbr64
	pushq	%rbp
	.cfi_def_cfa_offset 16
	.cfi_offset 6, -16
	movq	%rsp, %rbp
	.cfi_def_cfa_register 6
	pushq	%rbx
	subq	$24, %rsp
	.cfi_offset 3, -24
	movq	%rdi, -24(%rbp)
	movq	%rsi, -32(%rbp)
	movq	-24(%rbp), %rbx
	movq	-32(%rbp), %rax
	movq	%rax, %rdi
	call	_ZSt4moveIRNSt7__cxx1112basic_stringIcSt11char_traitsIcESaIcEEEEONSt16remove_referenceIT_E4typeEOS8_
	movq	%rax, %rsi
	movq	%rbx, %rdi
	call	_ZNSt8__detail9_Map_baseINSt7__cxx1112basic_stringIcSt11char_traitsIcESaIcEEESt4pairIKS6_St6vectorIS6_SaIS6_EEESaISC_ENS_10_Select1stESt8equal_toIS6_ESt4hashIS6_ENS_18_Mod_range_hashingENS_20_Default_ranged_hashENS_20_Prime_rehash_policyENS_17_Hashtable_traitsILb1ELb0ELb1EEELb1EEixEOS6_
	movq	-8(%rbp), %rbx
	leave
	.cfi_def_cfa 7, 8
	ret
	.cfi_endproc
.LFE4083:
	.size	_ZNSt13unordered_mapINSt7__cxx1112basic_stringIcSt11char_traitsIcESaIcEEESt6vectorIS5_SaIS5_EESt4hashIS5_ESt8equal_toIS5_ESaISt4pairIKS5_S8_EEEixEOS5_, .-_ZNSt13unordered_mapINSt7__cxx1112basic_stringIcSt11char_traitsIcESaIcEEESt6vectorIS5_SaIS5_EESt4hashIS5_ESt8equal_toIS5_ESaISt4pairIKS5_S8_EEEixEOS5_
	.section	.text._ZN9__gnu_cxx14__alloc_traitsISaINSt7__cxx1112basic_stringIcSt11char_traitsIcESaIcEEEES6_E27_S_propagate_on_copy_assignEv,"axG",@progbits,_ZN9__gnu_cxx14__alloc_traitsISaINSt7__cxx1112basic_stringIcSt11char_traitsIcESaIcEEEES6_E27_S_propagate_on_copy_assignEv,comdat
	.weak	_ZN9__gnu_cxx14__alloc_traitsISaINSt7__cxx1112basic_stringIcSt11char_traitsIcESaIcEEEES6_E27_S_propagate_on_copy_assignEv
	.type	_ZN9__gnu_cxx14__alloc_traitsISaINSt7__cxx1112basic_stringIcSt11char_traitsIcESaIcEEEES6_E27_S_propagate_on_copy_assignEv, @function
_ZN9__gnu_cxx14__alloc_traitsISaINSt7__cxx1112basic_stringIcSt11char_traitsIcESaIcEEEES6_E27_S_propagate_on_copy_assignEv:
.LFB4085:
	.cfi_startproc
	endbr64
	pushq	%rbp
	.cfi_def_cfa_offset 16
	.cfi_offset 6, -16
	movq	%rsp, %rbp
	.cfi_def_cfa_register 6
	movl	$0, %eax
	popq	%rbp
	.cfi_def_cfa 7, 8
	ret
	.cfi_endproc
.LFE4085:
	.size	_ZN9__gnu_cxx14__alloc_traitsISaINSt7__cxx1112basic_stringIcSt11char_traitsIcESaIcEEEES6_E27_S_propagate_on_copy_assignEv, .-_ZN9__gnu_cxx14__alloc_traitsISaINSt7__cxx1112basic_stringIcSt11char_traitsIcESaIcEEEES6_E27_S_propagate_on_copy_assignEv
	.section	.text._ZN9__gnu_cxx14__alloc_traitsISaINSt7__cxx1112basic_stringIcSt11char_traitsIcESaIcEEEES6_E15_S_always_equalEv,"axG",@progbits,_ZN9__gnu_cxx14__alloc_traitsISaINSt7__cxx1112basic_stringIcSt11char_traitsIcESaIcEEEES6_E15_S_always_equalEv,comdat
	.weak	_ZN9__gnu_cxx14__alloc_traitsISaINSt7__cxx1112basic_stringIcSt11char_traitsIcESaIcEEEES6_E15_S_always_equalEv
	.type	_ZN9__gnu_cxx14__alloc_traitsISaINSt7__cxx1112basic_stringIcSt11char_traitsIcESaIcEEEES6_E15_S_always_equalEv, @function
_ZN9__gnu_cxx14__alloc_traitsISaINSt7__cxx1112basic_stringIcSt11char_traitsIcESaIcEEEES6_E15_S_always_equalEv:
.LFB4086:
	.cfi_startproc
	endbr64
	pushq	%rbp
	.cfi_def_cfa_offset 16
	.cfi_offset 6, -16
	movq	%rsp, %rbp
	.cfi_def_cfa_register 6
	movl	$1, %eax
	popq	%rbp
	.cfi_def_cfa 7, 8
	ret
	.cfi_endproc
.LFE4086:
	.size	_ZN9__gnu_cxx14__alloc_traitsISaINSt7__cxx1112basic_stringIcSt11char_traitsIcESaIcEEEES6_E15_S_always_equalEv, .-_ZN9__gnu_cxx14__alloc_traitsISaINSt7__cxx1112basic_stringIcSt11char_traitsIcESaIcEEEES6_E15_S_always_equalEv
	.section	.text._ZNSt6vectorINSt7__cxx1112basic_stringIcSt11char_traitsIcESaIcEEESaIS5_EEaSERKS7_,"axG",@progbits,_ZNSt6vectorINSt7__cxx1112basic_stringIcSt11char_traitsIcESaIcEEESaIS5_EEaSERKS7_,comdat
	.align 2
	.weak	_ZNSt6vectorINSt7__cxx1112basic_stringIcSt11char_traitsIcESaIcEEESaIS5_EEaSERKS7_
	.type	_ZNSt6vectorINSt7__cxx1112basic_stringIcSt11char_traitsIcESaIcEEESaIS5_EEaSERKS7_, @function
_ZNSt6vectorINSt7__cxx1112basic_stringIcSt11char_traitsIcESaIcEEESaIS5_EEaSERKS7_:
.LFB4084:
	.cfi_startproc
	endbr64
	pushq	%rbp
	.cfi_def_cfa_offset 16
	.cfi_offset 6, -16
	movq	%rsp, %rbp
	.cfi_def_cfa_register 6
	pushq	%r14
	pushq	%r13
	pushq	%r12
	pushq	%rbx
	subq	$32, %rsp
	.cfi_offset 14, -24
	.cfi_offset 13, -32
	.cfi_offset 12, -40
	.cfi_offset 3, -48
	movq	%rdi, -56(%rbp)
	movq	%rsi, -64(%rbp)
	movq	-64(%rbp), %rax
	cmpq	-56(%rbp), %rax
	je	.L310
	call	_ZN9__gnu_cxx14__alloc_traitsISaINSt7__cxx1112basic_stringIcSt11char_traitsIcESaIcEEEES6_E27_S_propagate_on_copy_assignEv
	testb	%al, %al
	je	.L311
	call	_ZN9__gnu_cxx14__alloc_traitsISaINSt7__cxx1112basic_stringIcSt11char_traitsIcESaIcEEEES6_E15_S_always_equalEv
	xorl	$1, %eax
	testb	%al, %al
	je	.L312
	movq	-64(%rbp), %rax
	movq	%rax, %rdi
	call	_ZNKSt12_Vector_baseINSt7__cxx1112basic_stringIcSt11char_traitsIcESaIcEEESaIS5_EE19_M_get_Tp_allocatorEv
	movq	%rax, %rbx
	movq	-56(%rbp), %rax
	movq	%rax, %rdi
	call	_ZNSt12_Vector_baseINSt7__cxx1112basic_stringIcSt11char_traitsIcESaIcEEESaIS5_EE19_M_get_Tp_allocatorEv
	movq	%rbx, %rsi
	movq	%rax, %rdi
	call	_ZStneRKSaINSt7__cxx1112basic_stringIcSt11char_traitsIcESaIcEEEES7_
	testb	%al, %al
	je	.L312
	movl	$1, %eax
	jmp	.L313
.L312:
	movl	$0, %eax
.L313:
	testb	%al, %al
	je	.L314
	movq	-56(%rbp), %rax
	movq	%rax, %rdi
	call	_ZNSt6vectorINSt7__cxx1112basic_stringIcSt11char_traitsIcESaIcEEESaIS5_EE5clearEv
	movq	-56(%rbp), %rax
	movq	-56(%rbp), %rdx
	movq	16(%rdx), %rcx
	movq	-56(%rbp), %rdx
	movq	(%rdx), %rsi
	subq	%rsi, %rcx
	movq	%rcx, %rdx
	sarq	$5, %rdx
	movq	%rdx, %rsi
	movq	-56(%rbp), %rdx
	movq	(%rdx), %rcx
	movq	%rsi, %rdx
	movq	%rcx, %rsi
	movq	%rax, %rdi
	call	_ZNSt12_Vector_baseINSt7__cxx1112basic_stringIcSt11char_traitsIcESaIcEEESaIS5_EE13_M_deallocateEPS5_m
	movq	-56(%rbp), %rax
	movq	$0, (%rax)
	movq	-56(%rbp), %rax
	movq	$0, 8(%rax)
	movq	-56(%rbp), %rax
	movq	$0, 16(%rax)
.L314:
	movq	-64(%rbp), %rax
	movq	%rax, %rdi
	call	_ZNKSt12_Vector_baseINSt7__cxx1112basic_stringIcSt11char_traitsIcESaIcEEESaIS5_EE19_M_get_Tp_allocatorEv
	movq	%rax, %rbx
	movq	-56(%rbp), %rax
	movq	%rax, %rdi
	call	_ZNSt12_Vector_baseINSt7__cxx1112basic_stringIcSt11char_traitsIcESaIcEEESaIS5_EE19_M_get_Tp_allocatorEv
	movq	%rbx, %rsi
	movq	%rax, %rdi
	call	_ZSt15__alloc_on_copyISaINSt7__cxx1112basic_stringIcSt11char_traitsIcESaIcEEEEEvRT_RKS7_
.L311:
	movq	-64(%rbp), %rax
	movq	%rax, %rdi
	call	_ZNKSt6vectorINSt7__cxx1112basic_stringIcSt11char_traitsIcESaIcEEESaIS5_EE4sizeEv
	movq	%rax, -48(%rbp)
	movq	-56(%rbp), %rax
	movq	%rax, %rdi
	call	_ZNKSt6vectorINSt7__cxx1112basic_stringIcSt11char_traitsIcESaIcEEESaIS5_EE8capacityEv
	cmpq	%rax, -48(%rbp)
	seta	%al
	testb	%al, %al
	je	.L315
	movq	-64(%rbp), %rax
	movq	%rax, %rdi
	call	_ZNKSt6vectorINSt7__cxx1112basic_stringIcSt11char_traitsIcESaIcEEESaIS5_EE3endEv
	movq	%rax, %rbx
	movq	-64(%rbp), %rax
	movq	%rax, %rdi
	call	_ZNKSt6vectorINSt7__cxx1112basic_stringIcSt11char_traitsIcESaIcEEESaIS5_EE5beginEv
	movq	%rax, %rdx
	movq	-48(%rbp), %rsi
	movq	-56(%rbp), %rax
	movq	%rbx, %rcx
	movq	%rax, %rdi
	call	_ZNSt6vectorINSt7__cxx1112basic_stringIcSt11char_traitsIcESaIcEEESaIS5_EE20_M_allocate_and_copyIN9__gnu_cxx17__normal_iteratorIPKS5_S7_EEEEPS5_mT_SF_
	movq	%rax, -40(%rbp)
	movq	-56(%rbp), %rax
	movq	%rax, %rdi
	call	_ZNSt12_Vector_baseINSt7__cxx1112basic_stringIcSt11char_traitsIcESaIcEEESaIS5_EE19_M_get_Tp_allocatorEv
	movq	%rax, %rdx
	movq	-56(%rbp), %rax
	movq	8(%rax), %rcx
	movq	-56(%rbp), %rax
	movq	(%rax), %rax
	movq	%rcx, %rsi
	movq	%rax, %rdi
	call	_ZSt8_DestroyIPNSt7__cxx1112basic_stringIcSt11char_traitsIcESaIcEEES5_EvT_S7_RSaIT0_E
	movq	-56(%rbp), %rax
	movq	-56(%rbp), %rdx
	movq	16(%rdx), %rcx
	movq	-56(%rbp), %rdx
	movq	(%rdx), %rsi
	subq	%rsi, %rcx
	movq	%rcx, %rdx
	sarq	$5, %rdx
	movq	%rdx, %rsi
	movq	-56(%rbp), %rdx
	movq	(%rdx), %rcx
	movq	%rsi, %rdx
	movq	%rcx, %rsi
	movq	%rax, %rdi
	call	_ZNSt12_Vector_baseINSt7__cxx1112basic_stringIcSt11char_traitsIcESaIcEEESaIS5_EE13_M_deallocateEPS5_m
	movq	-56(%rbp), %rax
	movq	-40(%rbp), %rdx
	movq	%rdx, (%rax)
	movq	-56(%rbp), %rax
	movq	(%rax), %rdx
	movq	-48(%rbp), %rax
	salq	$5, %rax
	addq	%rax, %rdx
	movq	-56(%rbp), %rax
	movq	%rdx, 16(%rax)
	jmp	.L316
.L315:
	movq	-56(%rbp), %rax
	movq	%rax, %rdi
	call	_ZNKSt6vectorINSt7__cxx1112basic_stringIcSt11char_traitsIcESaIcEEESaIS5_EE4sizeEv
	cmpq	%rax, -48(%rbp)
	setbe	%al
	testb	%al, %al
	je	.L317
	movq	-56(%rbp), %rax
	movq	%rax, %rdi
	call	_ZNSt12_Vector_baseINSt7__cxx1112basic_stringIcSt11char_traitsIcESaIcEEESaIS5_EE19_M_get_Tp_allocatorEv
	movq	%rax, %r12
	movq	-56(%rbp), %rax
	movq	%rax, %rdi
	call	_ZNSt6vectorINSt7__cxx1112basic_stringIcSt11char_traitsIcESaIcEEESaIS5_EE3endEv
	movq	%rax, %rbx
	movq	-56(%rbp), %rax
	movq	%rax, %rdi
	call	_ZNSt6vectorINSt7__cxx1112basic_stringIcSt11char_traitsIcESaIcEEESaIS5_EE5beginEv
	movq	%rax, %r14
	movq	-64(%rbp), %rax
	movq	%rax, %rdi
	call	_ZNKSt6vectorINSt7__cxx1112basic_stringIcSt11char_traitsIcESaIcEEESaIS5_EE3endEv
	movq	%rax, %r13
	movq	-64(%rbp), %rax
	movq	%rax, %rdi
	call	_ZNKSt6vectorINSt7__cxx1112basic_stringIcSt11char_traitsIcESaIcEEESaIS5_EE5beginEv
	movq	%r14, %rdx
	movq	%r13, %rsi
	movq	%rax, %rdi
	call	_ZSt4copyIN9__gnu_cxx17__normal_iteratorIPKNSt7__cxx1112basic_stringIcSt11char_traitsIcESaIcEEESt6vectorIS7_SaIS7_EEEENS1_IPS7_SC_EEET0_T_SH_SG_
	movq	%r12, %rdx
	movq	%rbx, %rsi
	movq	%rax, %rdi
	call	_ZSt8_DestroyIN9__gnu_cxx17__normal_iteratorIPNSt7__cxx1112basic_stringIcSt11char_traitsIcESaIcEEESt6vectorIS7_SaIS7_EEEES7_EvT_SD_RSaIT0_E
	jmp	.L316
.L317:
	movq	-56(%rbp), %rax
	movq	(%rax), %rbx
	movq	-64(%rbp), %rax
	movq	(%rax), %r12
	movq	-56(%rbp), %rax
	movq	%rax, %rdi
	call	_ZNKSt6vectorINSt7__cxx1112basic_stringIcSt11char_traitsIcESaIcEEESaIS5_EE4sizeEv
	salq	$5, %rax
	leaq	(%r12,%rax), %rcx
	movq	-64(%rbp), %rax
	movq	(%rax), %rax
	movq	%rbx, %rdx
	movq	%rcx, %rsi
	movq	%rax, %rdi
	call	_ZSt4copyIPNSt7__cxx1112basic_stringIcSt11char_traitsIcESaIcEEES6_ET0_T_S8_S7_
	movq	-56(%rbp), %rax
	movq	%rax, %rdi
	call	_ZNSt12_Vector_baseINSt7__cxx1112basic_stringIcSt11char_traitsIcESaIcEEESaIS5_EE19_M_get_Tp_allocatorEv
	movq	%rax, %r13
	movq	-56(%rbp), %rax
	movq	8(%rax), %r12
	movq	-64(%rbp), %rax
	movq	8(%rax), %rbx
	movq	-64(%rbp), %rax
	movq	(%rax), %r14
	movq	-56(%rbp), %rax
	movq	%rax, %rdi
	call	_ZNKSt6vectorINSt7__cxx1112basic_stringIcSt11char_traitsIcESaIcEEESaIS5_EE4sizeEv
	salq	$5, %rax
	addq	%r14, %rax
	movq	%r13, %rcx
	movq	%r12, %rdx
	movq	%rbx, %rsi
	movq	%rax, %rdi
	call	_ZSt22__uninitialized_copy_aIPNSt7__cxx1112basic_stringIcSt11char_traitsIcESaIcEEES6_S5_ET0_T_S8_S7_RSaIT1_E
.L316:
	movq	-56(%rbp), %rax
	movq	(%rax), %rdx
	movq	-48(%rbp), %rax
	salq	$5, %rax
	addq	%rax, %rdx
	movq	-56(%rbp), %rax
	movq	%rdx, 8(%rax)
.L310:
	movq	-56(%rbp), %rax
	addq	$32, %rsp
	popq	%rbx
	popq	%r12
	popq	%r13
	popq	%r14
	popq	%rbp
	.cfi_def_cfa 7, 8
	ret
	.cfi_endproc
.LFE4084:
	.size	_ZNSt6vectorINSt7__cxx1112basic_stringIcSt11char_traitsIcESaIcEEESaIS5_EEaSERKS7_, .-_ZNSt6vectorINSt7__cxx1112basic_stringIcSt11char_traitsIcESaIcEEESaIS5_EEaSERKS7_
	.section	.text._ZNSt13unordered_mapINSt7__cxx1112basic_stringIcSt11char_traitsIcESaIcEEESt6vectorIS5_SaIS5_EESt4hashIS5_ESt8equal_toIS5_ESaISt4pairIKS5_S8_EEE5beginEv,"axG",@progbits,_ZNSt13unordered_mapINSt7__cxx1112basic_stringIcSt11char_traitsIcESaIcEEESt6vectorIS5_SaIS5_EESt4hashIS5_ESt8equal_toIS5_ESaISt4pairIKS5_S8_EEE5beginEv,comdat
	.align 2
	.weak	_ZNSt13unordered_mapINSt7__cxx1112basic_stringIcSt11char_traitsIcESaIcEEESt6vectorIS5_SaIS5_EESt4hashIS5_ESt8equal_toIS5_ESaISt4pairIKS5_S8_EEE5beginEv
	.type	_ZNSt13unordered_mapINSt7__cxx1112basic_stringIcSt11char_traitsIcESaIcEEESt6vectorIS5_SaIS5_EESt4hashIS5_ESt8equal_toIS5_ESaISt4pairIKS5_S8_EEE5beginEv, @function
_ZNSt13unordered_mapINSt7__cxx1112basic_stringIcSt11char_traitsIcESaIcEEESt6vectorIS5_SaIS5_EESt4hashIS5_ESt8equal_toIS5_ESaISt4pairIKS5_S8_EEE5beginEv:
.LFB4087:
	.cfi_startproc
	endbr64
	pushq	%rbp
	.cfi_def_cfa_offset 16
	.cfi_offset 6, -16
	movq	%rsp, %rbp
	.cfi_def_cfa_register 6
	subq	$16, %rsp
	movq	%rdi, -8(%rbp)
	movq	-8(%rbp), %rax
	movq	%rax, %rdi
	call	_ZNSt10_HashtableINSt7__cxx1112basic_stringIcSt11char_traitsIcESaIcEEESt4pairIKS5_St6vectorIS5_SaIS5_EEESaISB_ENSt8__detail10_Select1stESt8equal_toIS5_ESt4hashIS5_ENSD_18_Mod_range_hashingENSD_20_Default_ranged_hashENSD_20_Prime_rehash_policyENSD_17_Hashtable_traitsILb1ELb0ELb1EEEE5beginEv
	leave
	.cfi_def_cfa 7, 8
	ret
	.cfi_endproc
.LFE4087:
	.size	_ZNSt13unordered_mapINSt7__cxx1112basic_stringIcSt11char_traitsIcESaIcEEESt6vectorIS5_SaIS5_EESt4hashIS5_ESt8equal_toIS5_ESaISt4pairIKS5_S8_EEE5beginEv, .-_ZNSt13unordered_mapINSt7__cxx1112basic_stringIcSt11char_traitsIcESaIcEEESt6vectorIS5_SaIS5_EESt4hashIS5_ESt8equal_toIS5_ESaISt4pairIKS5_S8_EEE5beginEv
	.section	.text._ZNSt13unordered_mapINSt7__cxx1112basic_stringIcSt11char_traitsIcESaIcEEESt6vectorIS5_SaIS5_EESt4hashIS5_ESt8equal_toIS5_ESaISt4pairIKS5_S8_EEE3endEv,"axG",@progbits,_ZNSt13unordered_mapINSt7__cxx1112basic_stringIcSt11char_traitsIcESaIcEEESt6vectorIS5_SaIS5_EESt4hashIS5_ESt8equal_toIS5_ESaISt4pairIKS5_S8_EEE3endEv,comdat
	.align 2
	.weak	_ZNSt13unordered_mapINSt7__cxx1112basic_stringIcSt11char_traitsIcESaIcEEESt6vectorIS5_SaIS5_EESt4hashIS5_ESt8equal_toIS5_ESaISt4pairIKS5_S8_EEE3endEv
	.type	_ZNSt13unordered_mapINSt7__cxx1112basic_stringIcSt11char_traitsIcESaIcEEESt6vectorIS5_SaIS5_EESt4hashIS5_ESt8equal_toIS5_ESaISt4pairIKS5_S8_EEE3endEv, @function
_ZNSt13unordered_mapINSt7__cxx1112basic_stringIcSt11char_traitsIcESaIcEEESt6vectorIS5_SaIS5_EESt4hashIS5_ESt8equal_toIS5_ESaISt4pairIKS5_S8_EEE3endEv:
.LFB4088:
	.cfi_startproc
	endbr64
	pushq	%rbp
	.cfi_def_cfa_offset 16
	.cfi_offset 6, -16
	movq	%rsp, %rbp
	.cfi_def_cfa_register 6
	subq	$16, %rsp
	movq	%rdi, -8(%rbp)
	movq	-8(%rbp), %rax
	movq	%rax, %rdi
	call	_ZNSt10_HashtableINSt7__cxx1112basic_stringIcSt11char_traitsIcESaIcEEESt4pairIKS5_St6vectorIS5_SaIS5_EEESaISB_ENSt8__detail10_Select1stESt8equal_toIS5_ESt4hashIS5_ENSD_18_Mod_range_hashingENSD_20_Default_ranged_hashENSD_20_Prime_rehash_policyENSD_17_Hashtable_traitsILb1ELb0ELb1EEEE3endEv
	leave
	.cfi_def_cfa 7, 8
	ret
	.cfi_endproc
.LFE4088:
	.size	_ZNSt13unordered_mapINSt7__cxx1112basic_stringIcSt11char_traitsIcESaIcEEESt6vectorIS5_SaIS5_EESt4hashIS5_ESt8equal_toIS5_ESaISt4pairIKS5_S8_EEE3endEv, .-_ZNSt13unordered_mapINSt7__cxx1112basic_stringIcSt11char_traitsIcESaIcEEESt6vectorIS5_SaIS5_EESt4hashIS5_ESt8equal_toIS5_ESaISt4pairIKS5_S8_EEE3endEv
	.section	.text._ZNSt8__detailneERKNS_19_Node_iterator_baseISt4pairIKNSt7__cxx1112basic_stringIcSt11char_traitsIcESaIcEEESt6vectorIS7_SaIS7_EEELb1EEESF_,"axG",@progbits,_ZNSt8__detailneERKNS_19_Node_iterator_baseISt4pairIKNSt7__cxx1112basic_stringIcSt11char_traitsIcESaIcEEESt6vectorIS7_SaIS7_EEELb1EEESF_,comdat
	.weak	_ZNSt8__detailneERKNS_19_Node_iterator_baseISt4pairIKNSt7__cxx1112basic_stringIcSt11char_traitsIcESaIcEEESt6vectorIS7_SaIS7_EEELb1EEESF_
	.type	_ZNSt8__detailneERKNS_19_Node_iterator_baseISt4pairIKNSt7__cxx1112basic_stringIcSt11char_traitsIcESaIcEEESt6vectorIS7_SaIS7_EEELb1EEESF_, @function
_ZNSt8__detailneERKNS_19_Node_iterator_baseISt4pairIKNSt7__cxx1112basic_stringIcSt11char_traitsIcESaIcEEESt6vectorIS7_SaIS7_EEELb1EEESF_:
.LFB4089:
	.cfi_startproc
	endbr64
	pushq	%rbp
	.cfi_def_cfa_offset 16
	.cfi_offset 6, -16
	movq	%rsp, %rbp
	.cfi_def_cfa_register 6
	movq	%rdi, -8(%rbp)
	movq	%rsi, -16(%rbp)
	movq	-8(%rbp), %rax
	movq	(%rax), %rdx
	movq	-16(%rbp), %rax
	movq	(%rax), %rax
	cmpq	%rax, %rdx
	setne	%al
	popq	%rbp
	.cfi_def_cfa 7, 8
	ret
	.cfi_endproc
.LFE4089:
	.size	_ZNSt8__detailneERKNS_19_Node_iterator_baseISt4pairIKNSt7__cxx1112basic_stringIcSt11char_traitsIcESaIcEEESt6vectorIS7_SaIS7_EEELb1EEESF_, .-_ZNSt8__detailneERKNS_19_Node_iterator_baseISt4pairIKNSt7__cxx1112basic_stringIcSt11char_traitsIcESaIcEEESt6vectorIS7_SaIS7_EEELb1EEESF_
	.section	.text._ZNSt8__detail14_Node_iteratorISt4pairIKNSt7__cxx1112basic_stringIcSt11char_traitsIcESaIcEEESt6vectorIS7_SaIS7_EEELb0ELb1EEppEv,"axG",@progbits,_ZNSt8__detail14_Node_iteratorISt4pairIKNSt7__cxx1112basic_stringIcSt11char_traitsIcESaIcEEESt6vectorIS7_SaIS7_EEELb0ELb1EEppEv,comdat
	.align 2
	.weak	_ZNSt8__detail14_Node_iteratorISt4pairIKNSt7__cxx1112basic_stringIcSt11char_traitsIcESaIcEEESt6vectorIS7_SaIS7_EEELb0ELb1EEppEv
	.type	_ZNSt8__detail14_Node_iteratorISt4pairIKNSt7__cxx1112basic_stringIcSt11char_traitsIcESaIcEEESt6vectorIS7_SaIS7_EEELb0ELb1EEppEv, @function
_ZNSt8__detail14_Node_iteratorISt4pairIKNSt7__cxx1112basic_stringIcSt11char_traitsIcESaIcEEESt6vectorIS7_SaIS7_EEELb0ELb1EEppEv:
.LFB4090:
	.cfi_startproc
	endbr64
	pushq	%rbp
	.cfi_def_cfa_offset 16
	.cfi_offset 6, -16
	movq	%rsp, %rbp
	.cfi_def_cfa_register 6
	subq	$16, %rsp
	movq	%rdi, -8(%rbp)
	movq	-8(%rbp), %rax
	movq	%rax, %rdi
	call	_ZNSt8__detail19_Node_iterator_baseISt4pairIKNSt7__cxx1112basic_stringIcSt11char_traitsIcESaIcEEESt6vectorIS7_SaIS7_EEELb1EE7_M_incrEv
	movq	-8(%rbp), %rax
	leave
	.cfi_def_cfa 7, 8
	ret
	.cfi_endproc
.LFE4090:
	.size	_ZNSt8__detail14_Node_iteratorISt4pairIKNSt7__cxx1112basic_stringIcSt11char_traitsIcESaIcEEESt6vectorIS7_SaIS7_EEELb0ELb1EEppEv, .-_ZNSt8__detail14_Node_iteratorISt4pairIKNSt7__cxx1112basic_stringIcSt11char_traitsIcESaIcEEESt6vectorIS7_SaIS7_EEELb0ELb1EEppEv
	.section	.text._ZNKSt8__detail14_Node_iteratorISt4pairIKNSt7__cxx1112basic_stringIcSt11char_traitsIcESaIcEEESt6vectorIS7_SaIS7_EEELb0ELb1EEdeEv,"axG",@progbits,_ZNKSt8__detail14_Node_iteratorISt4pairIKNSt7__cxx1112basic_stringIcSt11char_traitsIcESaIcEEESt6vectorIS7_SaIS7_EEELb0ELb1EEdeEv,comdat
	.align 2
	.weak	_ZNKSt8__detail14_Node_iteratorISt4pairIKNSt7__cxx1112basic_stringIcSt11char_traitsIcESaIcEEESt6vectorIS7_SaIS7_EEELb0ELb1EEdeEv
	.type	_ZNKSt8__detail14_Node_iteratorISt4pairIKNSt7__cxx1112basic_stringIcSt11char_traitsIcESaIcEEESt6vectorIS7_SaIS7_EEELb0ELb1EEdeEv, @function
_ZNKSt8__detail14_Node_iteratorISt4pairIKNSt7__cxx1112basic_stringIcSt11char_traitsIcESaIcEEESt6vectorIS7_SaIS7_EEELb0ELb1EEdeEv:
.LFB4091:
	.cfi_startproc
	endbr64
	pushq	%rbp
	.cfi_def_cfa_offset 16
	.cfi_offset 6, -16
	movq	%rsp, %rbp
	.cfi_def_cfa_register 6
	subq	$16, %rsp
	movq	%rdi, -8(%rbp)
	movq	-8(%rbp), %rax
	movq	(%rax), %rax
	addq	$8, %rax
	movq	%rax, %rdi
	call	_ZNSt8__detail21_Hash_node_value_baseISt4pairIKNSt7__cxx1112basic_stringIcSt11char_traitsIcESaIcEEESt6vectorIS7_SaIS7_EEEE4_M_vEv
	leave
	.cfi_def_cfa 7, 8
	ret
	.cfi_endproc
.LFE4091:
	.size	_ZNKSt8__detail14_Node_iteratorISt4pairIKNSt7__cxx1112basic_stringIcSt11char_traitsIcESaIcEEESt6vectorIS7_SaIS7_EEELb0ELb1EEdeEv, .-_ZNKSt8__detail14_Node_iteratorISt4pairIKNSt7__cxx1112basic_stringIcSt11char_traitsIcESaIcEEESt6vectorIS7_SaIS7_EEELb0ELb1EEdeEv
	.section	.text._ZNKSt6vectorINSt7__cxx1112basic_stringIcSt11char_traitsIcESaIcEEESaIS5_EE4sizeEv,"axG",@progbits,_ZNKSt6vectorINSt7__cxx1112basic_stringIcSt11char_traitsIcESaIcEEESaIS5_EE4sizeEv,comdat
	.align 2
	.weak	_ZNKSt6vectorINSt7__cxx1112basic_stringIcSt11char_traitsIcESaIcEEESaIS5_EE4sizeEv
	.type	_ZNKSt6vectorINSt7__cxx1112basic_stringIcSt11char_traitsIcESaIcEEESaIS5_EE4sizeEv, @function
_ZNKSt6vectorINSt7__cxx1112basic_stringIcSt11char_traitsIcESaIcEEESaIS5_EE4sizeEv:
.LFB4092:
	.cfi_startproc
	endbr64
	pushq	%rbp
	.cfi_def_cfa_offset 16
	.cfi_offset 6, -16
	movq	%rsp, %rbp
	.cfi_def_cfa_register 6
	movq	%rdi, -8(%rbp)
	movq	-8(%rbp), %rax
	movq	8(%rax), %rdx
	movq	-8(%rbp), %rax
	movq	(%rax), %rcx
	movq	%rdx, %rax
	subq	%rcx, %rax
	sarq	$5, %rax
	popq	%rbp
	.cfi_def_cfa 7, 8
	ret
	.cfi_endproc
.LFE4092:
	.size	_ZNKSt6vectorINSt7__cxx1112basic_stringIcSt11char_traitsIcESaIcEEESaIS5_EE4sizeEv, .-_ZNKSt6vectorINSt7__cxx1112basic_stringIcSt11char_traitsIcESaIcEEESaIS5_EE4sizeEv
	.section	.text._ZNSt12_Vector_baseINSt7__cxx1112basic_stringIcSt11char_traitsIcESaIcEEESaIS5_EE12_Vector_implC2Ev,"axG",@progbits,_ZNSt12_Vector_baseINSt7__cxx1112basic_stringIcSt11char_traitsIcESaIcEEESaIS5_EE12_Vector_implC5Ev,comdat
	.align 2
	.weak	_ZNSt12_Vector_baseINSt7__cxx1112basic_stringIcSt11char_traitsIcESaIcEEESaIS5_EE12_Vector_implC2Ev
	.type	_ZNSt12_Vector_baseINSt7__cxx1112basic_stringIcSt11char_traitsIcESaIcEEESaIS5_EE12_Vector_implC2Ev, @function
_ZNSt12_Vector_baseINSt7__cxx1112basic_stringIcSt11char_traitsIcESaIcEEESaIS5_EE12_Vector_implC2Ev:
.LFB4094:
	.cfi_startproc
	endbr64
	pushq	%rbp
	.cfi_def_cfa_offset 16
	.cfi_offset 6, -16
	movq	%rsp, %rbp
	.cfi_def_cfa_register 6
	subq	$16, %rsp
	movq	%rdi, -8(%rbp)
	movq	-8(%rbp), %rax
	movq	%rax, %rdi
	call	_ZNSaINSt7__cxx1112basic_stringIcSt11char_traitsIcESaIcEEEEC2Ev
	movq	-8(%rbp), %rax
	movq	%rax, %rdi
	call	_ZNSt12_Vector_baseINSt7__cxx1112basic_stringIcSt11char_traitsIcESaIcEEESaIS5_EE17_Vector_impl_dataC2Ev
	nop
	leave
	.cfi_def_cfa 7, 8
	ret
	.cfi_endproc
.LFE4094:
	.size	_ZNSt12_Vector_baseINSt7__cxx1112basic_stringIcSt11char_traitsIcESaIcEEESaIS5_EE12_Vector_implC2Ev, .-_ZNSt12_Vector_baseINSt7__cxx1112basic_stringIcSt11char_traitsIcESaIcEEESaIS5_EE12_Vector_implC2Ev
	.weak	_ZNSt12_Vector_baseINSt7__cxx1112basic_stringIcSt11char_traitsIcESaIcEEESaIS5_EE12_Vector_implC1Ev
	.set	_ZNSt12_Vector_baseINSt7__cxx1112basic_stringIcSt11char_traitsIcESaIcEEESaIS5_EE12_Vector_implC1Ev,_ZNSt12_Vector_baseINSt7__cxx1112basic_stringIcSt11char_traitsIcESaIcEEESaIS5_EE12_Vector_implC2Ev
	.section	.text._ZNSaINSt7__cxx1112basic_stringIcSt11char_traitsIcESaIcEEEED2Ev,"axG",@progbits,_ZNSaINSt7__cxx1112basic_stringIcSt11char_traitsIcESaIcEEEED5Ev,comdat
	.align 2
	.weak	_ZNSaINSt7__cxx1112basic_stringIcSt11char_traitsIcESaIcEEEED2Ev
	.type	_ZNSaINSt7__cxx1112basic_stringIcSt11char_traitsIcESaIcEEEED2Ev, @function
_ZNSaINSt7__cxx1112basic_stringIcSt11char_traitsIcESaIcEEEED2Ev:
.LFB4097:
	.cfi_startproc
	endbr64
	pushq	%rbp
	.cfi_def_cfa_offset 16
	.cfi_offset 6, -16
	movq	%rsp, %rbp
	.cfi_def_cfa_register 6
	subq	$16, %rsp
	movq	%rdi, -8(%rbp)
	movq	-8(%rbp), %rax
	movq	%rax, %rdi
	call	_ZN9__gnu_cxx13new_allocatorINSt7__cxx1112basic_stringIcSt11char_traitsIcESaIcEEEED2Ev
	nop
	leave
	.cfi_def_cfa 7, 8
	ret
	.cfi_endproc
.LFE4097:
	.size	_ZNSaINSt7__cxx1112basic_stringIcSt11char_traitsIcESaIcEEEED2Ev, .-_ZNSaINSt7__cxx1112basic_stringIcSt11char_traitsIcESaIcEEEED2Ev
	.weak	_ZNSaINSt7__cxx1112basic_stringIcSt11char_traitsIcESaIcEEEED1Ev
	.set	_ZNSaINSt7__cxx1112basic_stringIcSt11char_traitsIcESaIcEEEED1Ev,_ZNSaINSt7__cxx1112basic_stringIcSt11char_traitsIcESaIcEEEED2Ev
	.section	.text._ZNSt12_Vector_baseINSt7__cxx1112basic_stringIcSt11char_traitsIcESaIcEEESaIS5_EED2Ev,"axG",@progbits,_ZNSt12_Vector_baseINSt7__cxx1112basic_stringIcSt11char_traitsIcESaIcEEESaIS5_EED5Ev,comdat
	.align 2
	.weak	_ZNSt12_Vector_baseINSt7__cxx1112basic_stringIcSt11char_traitsIcESaIcEEESaIS5_EED2Ev
	.type	_ZNSt12_Vector_baseINSt7__cxx1112basic_stringIcSt11char_traitsIcESaIcEEESaIS5_EED2Ev, @function
_ZNSt12_Vector_baseINSt7__cxx1112basic_stringIcSt11char_traitsIcESaIcEEESaIS5_EED2Ev:
.LFB4100:
	.cfi_startproc
	.cfi_personality 0x9b,DW.ref.__gxx_personality_v0
	.cfi_lsda 0x1b,.LLSDA4100
	endbr64
	pushq	%rbp
	.cfi_def_cfa_offset 16
	.cfi_offset 6, -16
	movq	%rsp, %rbp
	.cfi_def_cfa_register 6
	subq	$16, %rsp
	movq	%rdi, -8(%rbp)
	movq	-8(%rbp), %rax
	movq	16(%rax), %rdx
	movq	-8(%rbp), %rax
	movq	(%rax), %rcx
	movq	%rdx, %rax
	subq	%rcx, %rax
	sarq	$5, %rax
	movq	%rax, %rdx
	movq	-8(%rbp), %rax
	movq	(%rax), %rcx
	movq	-8(%rbp), %rax
	movq	%rcx, %rsi
	movq	%rax, %rdi
	call	_ZNSt12_Vector_baseINSt7__cxx1112basic_stringIcSt11char_traitsIcESaIcEEESaIS5_EE13_M_deallocateEPS5_m
	movq	-8(%rbp), %rax
	movq	%rax, %rdi
	call	_ZNSt12_Vector_baseINSt7__cxx1112basic_stringIcSt11char_traitsIcESaIcEEESaIS5_EE12_Vector_implD1Ev
	nop
	leave
	.cfi_def_cfa 7, 8
	ret
	.cfi_endproc
.LFE4100:
	.section	.gcc_except_table
.LLSDA4100:
	.byte	0xff
	.byte	0xff
	.byte	0x1
	.uleb128 .LLSDACSE4100-.LLSDACSB4100
.LLSDACSB4100:
.LLSDACSE4100:
	.section	.text._ZNSt12_Vector_baseINSt7__cxx1112basic_stringIcSt11char_traitsIcESaIcEEESaIS5_EED2Ev,"axG",@progbits,_ZNSt12_Vector_baseINSt7__cxx1112basic_stringIcSt11char_traitsIcESaIcEEESaIS5_EED5Ev,comdat
	.size	_ZNSt12_Vector_baseINSt7__cxx1112basic_stringIcSt11char_traitsIcESaIcEEESaIS5_EED2Ev, .-_ZNSt12_Vector_baseINSt7__cxx1112basic_stringIcSt11char_traitsIcESaIcEEESaIS5_EED2Ev
	.weak	_ZNSt12_Vector_baseINSt7__cxx1112basic_stringIcSt11char_traitsIcESaIcEEESaIS5_EED1Ev
	.set	_ZNSt12_Vector_baseINSt7__cxx1112basic_stringIcSt11char_traitsIcESaIcEEESaIS5_EED1Ev,_ZNSt12_Vector_baseINSt7__cxx1112basic_stringIcSt11char_traitsIcESaIcEEESaIS5_EED2Ev
	.section	.text._ZNSt6vectorINSt7__cxx1112basic_stringIcSt11char_traitsIcESaIcEEESaIS5_EED2Ev,"axG",@progbits,_ZNSt6vectorINSt7__cxx1112basic_stringIcSt11char_traitsIcESaIcEEESaIS5_EED5Ev,comdat
	.align 2
	.weak	_ZNSt6vectorINSt7__cxx1112basic_stringIcSt11char_traitsIcESaIcEEESaIS5_EED2Ev
	.type	_ZNSt6vectorINSt7__cxx1112basic_stringIcSt11char_traitsIcESaIcEEESaIS5_EED2Ev, @function
_ZNSt6vectorINSt7__cxx1112basic_stringIcSt11char_traitsIcESaIcEEESaIS5_EED2Ev:
.LFB4103:
	.cfi_startproc
	.cfi_personality 0x9b,DW.ref.__gxx_personality_v0
	.cfi_lsda 0x1b,.LLSDA4103
	endbr64
	pushq	%rbp
	.cfi_def_cfa_offset 16
	.cfi_offset 6, -16
	movq	%rsp, %rbp
	.cfi_def_cfa_register 6
	subq	$16, %rsp
	movq	%rdi, -8(%rbp)
	movq	-8(%rbp), %rax
	movq	%rax, %rdi
	call	_ZNSt12_Vector_baseINSt7__cxx1112basic_stringIcSt11char_traitsIcESaIcEEESaIS5_EE19_M_get_Tp_allocatorEv
	movq	%rax, %rdx
	movq	-8(%rbp), %rax
	movq	8(%rax), %rcx
	movq	-8(%rbp), %rax
	movq	(%rax), %rax
	movq	%rcx, %rsi
	movq	%rax, %rdi
	call	_ZSt8_DestroyIPNSt7__cxx1112basic_stringIcSt11char_traitsIcESaIcEEES5_EvT_S7_RSaIT0_E
	movq	-8(%rbp), %rax
	movq	%rax, %rdi
	call	_ZNSt12_Vector_baseINSt7__cxx1112basic_stringIcSt11char_traitsIcESaIcEEESaIS5_EED2Ev
	nop
	leave
	.cfi_def_cfa 7, 8
	ret
	.cfi_endproc
.LFE4103:
	.section	.gcc_except_table
.LLSDA4103:
	.byte	0xff
	.byte	0xff
	.byte	0x1
	.uleb128 .LLSDACSE4103-.LLSDACSB4103
.LLSDACSB4103:
.LLSDACSE4103:
	.section	.text._ZNSt6vectorINSt7__cxx1112basic_stringIcSt11char_traitsIcESaIcEEESaIS5_EED2Ev,"axG",@progbits,_ZNSt6vectorINSt7__cxx1112basic_stringIcSt11char_traitsIcESaIcEEESaIS5_EED5Ev,comdat
	.size	_ZNSt6vectorINSt7__cxx1112basic_stringIcSt11char_traitsIcESaIcEEESaIS5_EED2Ev, .-_ZNSt6vectorINSt7__cxx1112basic_stringIcSt11char_traitsIcESaIcEEESaIS5_EED2Ev
	.weak	_ZNSt6vectorINSt7__cxx1112basic_stringIcSt11char_traitsIcESaIcEEESaIS5_EED1Ev
	.set	_ZNSt6vectorINSt7__cxx1112basic_stringIcSt11char_traitsIcESaIcEEESaIS5_EED1Ev,_ZNSt6vectorINSt7__cxx1112basic_stringIcSt11char_traitsIcESaIcEEESaIS5_EED2Ev
	.section	.text._ZNSt8__detail21_Hashtable_ebo_helperILi1ESt4hashINSt7__cxx1112basic_stringIcSt11char_traitsIcESaIcEEEELb1EEC2Ev,"axG",@progbits,_ZNSt8__detail21_Hashtable_ebo_helperILi1ESt4hashINSt7__cxx1112basic_stringIcSt11char_traitsIcESaIcEEEELb1EEC5Ev,comdat
	.align 2
	.weak	_ZNSt8__detail21_Hashtable_ebo_helperILi1ESt4hashINSt7__cxx1112basic_stringIcSt11char_traitsIcESaIcEEEELb1EEC2Ev
	.type	_ZNSt8__detail21_Hashtable_ebo_helperILi1ESt4hashINSt7__cxx1112basic_stringIcSt11char_traitsIcESaIcEEEELb1EEC2Ev, @function
_ZNSt8__detail21_Hashtable_ebo_helperILi1ESt4hashINSt7__cxx1112basic_stringIcSt11char_traitsIcESaIcEEEELb1EEC2Ev:
.LFB4106:
	.cfi_startproc
	endbr64
	pushq	%rbp
	.cfi_def_cfa_offset 16
	.cfi_offset 6, -16
	movq	%rsp, %rbp
	.cfi_def_cfa_register 6
	movq	%rdi, -8(%rbp)
	nop
	popq	%rbp
	.cfi_def_cfa 7, 8
	ret
	.cfi_endproc
.LFE4106:
	.size	_ZNSt8__detail21_Hashtable_ebo_helperILi1ESt4hashINSt7__cxx1112basic_stringIcSt11char_traitsIcESaIcEEEELb1EEC2Ev, .-_ZNSt8__detail21_Hashtable_ebo_helperILi1ESt4hashINSt7__cxx1112basic_stringIcSt11char_traitsIcESaIcEEEELb1EEC2Ev
	.weak	_ZNSt8__detail21_Hashtable_ebo_helperILi1ESt4hashINSt7__cxx1112basic_stringIcSt11char_traitsIcESaIcEEEELb1EEC1Ev
	.set	_ZNSt8__detail21_Hashtable_ebo_helperILi1ESt4hashINSt7__cxx1112basic_stringIcSt11char_traitsIcESaIcEEEELb1EEC1Ev,_ZNSt8__detail21_Hashtable_ebo_helperILi1ESt4hashINSt7__cxx1112basic_stringIcSt11char_traitsIcESaIcEEEELb1EEC2Ev
	.section	.text._ZNSt8__detail21_Hashtable_ebo_helperILi0ESt8equal_toINSt7__cxx1112basic_stringIcSt11char_traitsIcESaIcEEEELb1EEC2Ev,"axG",@progbits,_ZNSt8__detail21_Hashtable_ebo_helperILi0ESt8equal_toINSt7__cxx1112basic_stringIcSt11char_traitsIcESaIcEEEELb1EEC5Ev,comdat
	.align 2
	.weak	_ZNSt8__detail21_Hashtable_ebo_helperILi0ESt8equal_toINSt7__cxx1112basic_stringIcSt11char_traitsIcESaIcEEEELb1EEC2Ev
	.type	_ZNSt8__detail21_Hashtable_ebo_helperILi0ESt8equal_toINSt7__cxx1112basic_stringIcSt11char_traitsIcESaIcEEEELb1EEC2Ev, @function
_ZNSt8__detail21_Hashtable_ebo_helperILi0ESt8equal_toINSt7__cxx1112basic_stringIcSt11char_traitsIcESaIcEEEELb1EEC2Ev:
.LFB4109:
	.cfi_startproc
	endbr64
	pushq	%rbp
	.cfi_def_cfa_offset 16
	.cfi_offset 6, -16
	movq	%rsp, %rbp
	.cfi_def_cfa_register 6
	movq	%rdi, -8(%rbp)
	nop
	popq	%rbp
	.cfi_def_cfa 7, 8
	ret
	.cfi_endproc
.LFE4109:
	.size	_ZNSt8__detail21_Hashtable_ebo_helperILi0ESt8equal_toINSt7__cxx1112basic_stringIcSt11char_traitsIcESaIcEEEELb1EEC2Ev, .-_ZNSt8__detail21_Hashtable_ebo_helperILi0ESt8equal_toINSt7__cxx1112basic_stringIcSt11char_traitsIcESaIcEEEELb1EEC2Ev
	.weak	_ZNSt8__detail21_Hashtable_ebo_helperILi0ESt8equal_toINSt7__cxx1112basic_stringIcSt11char_traitsIcESaIcEEEELb1EEC1Ev
	.set	_ZNSt8__detail21_Hashtable_ebo_helperILi0ESt8equal_toINSt7__cxx1112basic_stringIcSt11char_traitsIcESaIcEEEELb1EEC1Ev,_ZNSt8__detail21_Hashtable_ebo_helperILi0ESt8equal_toINSt7__cxx1112basic_stringIcSt11char_traitsIcESaIcEEEELb1EEC2Ev
	.section	.text._ZNSt8__detail21_Hashtable_ebo_helperILi0ESaINS_10_Hash_nodeISt4pairIKNSt7__cxx1112basic_stringIcSt11char_traitsIcESaIcEEESt6vectorIS8_SaIS8_EEELb1EEEELb1EEC2Ev,"axG",@progbits,_ZNSt8__detail21_Hashtable_ebo_helperILi0ESaINS_10_Hash_nodeISt4pairIKNSt7__cxx1112basic_stringIcSt11char_traitsIcESaIcEEESt6vectorIS8_SaIS8_EEELb1EEEELb1EEC5Ev,comdat
	.align 2
	.weak	_ZNSt8__detail21_Hashtable_ebo_helperILi0ESaINS_10_Hash_nodeISt4pairIKNSt7__cxx1112basic_stringIcSt11char_traitsIcESaIcEEESt6vectorIS8_SaIS8_EEELb1EEEELb1EEC2Ev
	.type	_ZNSt8__detail21_Hashtable_ebo_helperILi0ESaINS_10_Hash_nodeISt4pairIKNSt7__cxx1112basic_stringIcSt11char_traitsIcESaIcEEESt6vectorIS8_SaIS8_EEELb1EEEELb1EEC2Ev, @function
_ZNSt8__detail21_Hashtable_ebo_helperILi0ESaINS_10_Hash_nodeISt4pairIKNSt7__cxx1112basic_stringIcSt11char_traitsIcESaIcEEESt6vectorIS8_SaIS8_EEELb1EEEELb1EEC2Ev:
.LFB4112:
	.cfi_startproc
	endbr64
	pushq	%rbp
	.cfi_def_cfa_offset 16
	.cfi_offset 6, -16
	movq	%rsp, %rbp
	.cfi_def_cfa_register 6
	subq	$16, %rsp
	movq	%rdi, -8(%rbp)
	movq	-8(%rbp), %rax
	movq	%rax, %rdi
	call	_ZNSaINSt8__detail10_Hash_nodeISt4pairIKNSt7__cxx1112basic_stringIcSt11char_traitsIcESaIcEEESt6vectorIS7_SaIS7_EEELb1EEEEC2Ev
	nop
	leave
	.cfi_def_cfa 7, 8
	ret
	.cfi_endproc
.LFE4112:
	.size	_ZNSt8__detail21_Hashtable_ebo_helperILi0ESaINS_10_Hash_nodeISt4pairIKNSt7__cxx1112basic_stringIcSt11char_traitsIcESaIcEEESt6vectorIS8_SaIS8_EEELb1EEEELb1EEC2Ev, .-_ZNSt8__detail21_Hashtable_ebo_helperILi0ESaINS_10_Hash_nodeISt4pairIKNSt7__cxx1112basic_stringIcSt11char_traitsIcESaIcEEESt6vectorIS8_SaIS8_EEELb1EEEELb1EEC2Ev
	.weak	_ZNSt8__detail21_Hashtable_ebo_helperILi0ESaINS_10_Hash_nodeISt4pairIKNSt7__cxx1112basic_stringIcSt11char_traitsIcESaIcEEESt6vectorIS8_SaIS8_EEELb1EEEELb1EEC1Ev
	.set	_ZNSt8__detail21_Hashtable_ebo_helperILi0ESaINS_10_Hash_nodeISt4pairIKNSt7__cxx1112basic_stringIcSt11char_traitsIcESaIcEEESt6vectorIS8_SaIS8_EEELb1EEEELb1EEC1Ev,_ZNSt8__detail21_Hashtable_ebo_helperILi0ESaINS_10_Hash_nodeISt4pairIKNSt7__cxx1112basic_stringIcSt11char_traitsIcESaIcEEESt6vectorIS8_SaIS8_EEELb1EEEELb1EEC2Ev
	.section	.text._ZNSaINSt8__detail10_Hash_nodeISt4pairIKNSt7__cxx1112basic_stringIcSt11char_traitsIcESaIcEEESt6vectorIS7_SaIS7_EEELb1EEEED2Ev,"axG",@progbits,_ZNSaINSt8__detail10_Hash_nodeISt4pairIKNSt7__cxx1112basic_stringIcSt11char_traitsIcESaIcEEESt6vectorIS7_SaIS7_EEELb1EEEED5Ev,comdat
	.align 2
	.weak	_ZNSaINSt8__detail10_Hash_nodeISt4pairIKNSt7__cxx1112basic_stringIcSt11char_traitsIcESaIcEEESt6vectorIS7_SaIS7_EEELb1EEEED2Ev
	.type	_ZNSaINSt8__detail10_Hash_nodeISt4pairIKNSt7__cxx1112basic_stringIcSt11char_traitsIcESaIcEEESt6vectorIS7_SaIS7_EEELb1EEEED2Ev, @function
_ZNSaINSt8__detail10_Hash_nodeISt4pairIKNSt7__cxx1112basic_stringIcSt11char_traitsIcESaIcEEESt6vectorIS7_SaIS7_EEELb1EEEED2Ev:
.LFB4115:
	.cfi_startproc
	endbr64
	pushq	%rbp
	.cfi_def_cfa_offset 16
	.cfi_offset 6, -16
	movq	%rsp, %rbp
	.cfi_def_cfa_register 6
	subq	$16, %rsp
	movq	%rdi, -8(%rbp)
	movq	-8(%rbp), %rax
	movq	%rax, %rdi
	call	_ZN9__gnu_cxx13new_allocatorINSt8__detail10_Hash_nodeISt4pairIKNSt7__cxx1112basic_stringIcSt11char_traitsIcESaIcEEESt6vectorIS9_SaIS9_EEELb1EEEED2Ev
	nop
	leave
	.cfi_def_cfa 7, 8
	ret
	.cfi_endproc
.LFE4115:
	.size	_ZNSaINSt8__detail10_Hash_nodeISt4pairIKNSt7__cxx1112basic_stringIcSt11char_traitsIcESaIcEEESt6vectorIS7_SaIS7_EEELb1EEEED2Ev, .-_ZNSaINSt8__detail10_Hash_nodeISt4pairIKNSt7__cxx1112basic_stringIcSt11char_traitsIcESaIcEEESt6vectorIS7_SaIS7_EEELb1EEEED2Ev
	.weak	_ZNSaINSt8__detail10_Hash_nodeISt4pairIKNSt7__cxx1112basic_stringIcSt11char_traitsIcESaIcEEESt6vectorIS7_SaIS7_EEELb1EEEED1Ev
	.set	_ZNSaINSt8__detail10_Hash_nodeISt4pairIKNSt7__cxx1112basic_stringIcSt11char_traitsIcESaIcEEESt6vectorIS7_SaIS7_EEELb1EEEED1Ev,_ZNSaINSt8__detail10_Hash_nodeISt4pairIKNSt7__cxx1112basic_stringIcSt11char_traitsIcESaIcEEESt6vectorIS7_SaIS7_EEELb1EEEED2Ev
	.section	.text._ZNSt10_HashtableINSt7__cxx1112basic_stringIcSt11char_traitsIcESaIcEEESt4pairIKS5_St6vectorIS5_SaIS5_EEESaISB_ENSt8__detail10_Select1stESt8equal_toIS5_ESt4hashIS5_ENSD_18_Mod_range_hashingENSD_20_Default_ranged_hashENSD_20_Prime_rehash_policyENSD_17_Hashtable_traitsILb1ELb0ELb1EEEED2Ev,"axG",@progbits,_ZNSt10_HashtableINSt7__cxx1112basic_stringIcSt11char_traitsIcESaIcEEESt4pairIKS5_St6vectorIS5_SaIS5_EEESaISB_ENSt8__detail10_Select1stESt8equal_toIS5_ESt4hashIS5_ENSD_18_Mod_range_hashingENSD_20_Default_ranged_hashENSD_20_Prime_rehash_policyENSD_17_Hashtable_traitsILb1ELb0ELb1EEEED5Ev,comdat
	.align 2
	.weak	_ZNSt10_HashtableINSt7__cxx1112basic_stringIcSt11char_traitsIcESaIcEEESt4pairIKS5_St6vectorIS5_SaIS5_EEESaISB_ENSt8__detail10_Select1stESt8equal_toIS5_ESt4hashIS5_ENSD_18_Mod_range_hashingENSD_20_Default_ranged_hashENSD_20_Prime_rehash_policyENSD_17_Hashtable_traitsILb1ELb0ELb1EEEED2Ev
	.type	_ZNSt10_HashtableINSt7__cxx1112basic_stringIcSt11char_traitsIcESaIcEEESt4pairIKS5_St6vectorIS5_SaIS5_EEESaISB_ENSt8__detail10_Select1stESt8equal_toIS5_ESt4hashIS5_ENSD_18_Mod_range_hashingENSD_20_Default_ranged_hashENSD_20_Prime_rehash_policyENSD_17_Hashtable_traitsILb1ELb0ELb1EEEED2Ev, @function
_ZNSt10_HashtableINSt7__cxx1112basic_stringIcSt11char_traitsIcESaIcEEESt4pairIKS5_St6vectorIS5_SaIS5_EEESaISB_ENSt8__detail10_Select1stESt8equal_toIS5_ESt4hashIS5_ENSD_18_Mod_range_hashingENSD_20_Default_ranged_hashENSD_20_Prime_rehash_policyENSD_17_Hashtable_traitsILb1ELb0ELb1EEEED2Ev:
.LFB4118:
	.cfi_startproc
	.cfi_personality 0x9b,DW.ref.__gxx_personality_v0
	.cfi_lsda 0x1b,.LLSDA4118
	endbr64
	pushq	%rbp
	.cfi_def_cfa_offset 16
	.cfi_offset 6, -16
	movq	%rsp, %rbp
	.cfi_def_cfa_register 6
	subq	$16, %rsp
	movq	%rdi, -8(%rbp)
	movq	-8(%rbp), %rax
	movq	%rax, %rdi
	call	_ZNSt10_HashtableINSt7__cxx1112basic_stringIcSt11char_traitsIcESaIcEEESt4pairIKS5_St6vectorIS5_SaIS5_EEESaISB_ENSt8__detail10_Select1stESt8equal_toIS5_ESt4hashIS5_ENSD_18_Mod_range_hashingENSD_20_Default_ranged_hashENSD_20_Prime_rehash_policyENSD_17_Hashtable_traitsILb1ELb0ELb1EEEE5clearEv
	movq	-8(%rbp), %rax
	movq	%rax, %rdi
	call	_ZNSt10_HashtableINSt7__cxx1112basic_stringIcSt11char_traitsIcESaIcEEESt4pairIKS5_St6vectorIS5_SaIS5_EEESaISB_ENSt8__detail10_Select1stESt8equal_toIS5_ESt4hashIS5_ENSD_18_Mod_range_hashingENSD_20_Default_ranged_hashENSD_20_Prime_rehash_policyENSD_17_Hashtable_traitsILb1ELb0ELb1EEEE21_M_deallocate_bucketsEv
	movq	-8(%rbp), %rax
	movq	%rax, %rdi
	call	_ZNSt8__detail16_Hashtable_allocISaINS_10_Hash_nodeISt4pairIKNSt7__cxx1112basic_stringIcSt11char_traitsIcESaIcEEESt6vectorIS8_SaIS8_EEELb1EEEEED2Ev
	nop
	leave
	.cfi_def_cfa 7, 8
	ret
	.cfi_endproc
.LFE4118:
	.section	.gcc_except_table
.LLSDA4118:
	.byte	0xff
	.byte	0xff
	.byte	0x1
	.uleb128 .LLSDACSE4118-.LLSDACSB4118
.LLSDACSB4118:
.LLSDACSE4118:
	.section	.text._ZNSt10_HashtableINSt7__cxx1112basic_stringIcSt11char_traitsIcESaIcEEESt4pairIKS5_St6vectorIS5_SaIS5_EEESaISB_ENSt8__detail10_Select1stESt8equal_toIS5_ESt4hashIS5_ENSD_18_Mod_range_hashingENSD_20_Default_ranged_hashENSD_20_Prime_rehash_policyENSD_17_Hashtable_traitsILb1ELb0ELb1EEEED2Ev,"axG",@progbits,_ZNSt10_HashtableINSt7__cxx1112basic_stringIcSt11char_traitsIcESaIcEEESt4pairIKS5_St6vectorIS5_SaIS5_EEESaISB_ENSt8__detail10_Select1stESt8equal_toIS5_ESt4hashIS5_ENSD_18_Mod_range_hashingENSD_20_Default_ranged_hashENSD_20_Prime_rehash_policyENSD_17_Hashtable_traitsILb1ELb0ELb1EEEED5Ev,comdat
	.size	_ZNSt10_HashtableINSt7__cxx1112basic_stringIcSt11char_traitsIcESaIcEEESt4pairIKS5_St6vectorIS5_SaIS5_EEESaISB_ENSt8__detail10_Select1stESt8equal_toIS5_ESt4hashIS5_ENSD_18_Mod_range_hashingENSD_20_Default_ranged_hashENSD_20_Prime_rehash_policyENSD_17_Hashtable_traitsILb1ELb0ELb1EEEED2Ev, .-_ZNSt10_HashtableINSt7__cxx1112basic_stringIcSt11char_traitsIcESaIcEEESt4pairIKS5_St6vectorIS5_SaIS5_EEESaISB_ENSt8__detail10_Select1stESt8equal_toIS5_ESt4hashIS5_ENSD_18_Mod_range_hashingENSD_20_Default_ranged_hashENSD_20_Prime_rehash_policyENSD_17_Hashtable_traitsILb1ELb0ELb1EEEED2Ev
	.weak	_ZNSt10_HashtableINSt7__cxx1112basic_stringIcSt11char_traitsIcESaIcEEESt4pairIKS5_St6vectorIS5_SaIS5_EEESaISB_ENSt8__detail10_Select1stESt8equal_toIS5_ESt4hashIS5_ENSD_18_Mod_range_hashingENSD_20_Default_ranged_hashENSD_20_Prime_rehash_policyENSD_17_Hashtable_traitsILb1ELb0ELb1EEEED1Ev
	.set	_ZNSt10_HashtableINSt7__cxx1112basic_stringIcSt11char_traitsIcESaIcEEESt4pairIKS5_St6vectorIS5_SaIS5_EEESaISB_ENSt8__detail10_Select1stESt8equal_toIS5_ESt4hashIS5_ENSD_18_Mod_range_hashingENSD_20_Default_ranged_hashENSD_20_Prime_rehash_policyENSD_17_Hashtable_traitsILb1ELb0ELb1EEEED1Ev,_ZNSt10_HashtableINSt7__cxx1112basic_stringIcSt11char_traitsIcESaIcEEESt4pairIKS5_St6vectorIS5_SaIS5_EEESaISB_ENSt8__detail10_Select1stESt8equal_toIS5_ESt4hashIS5_ENSD_18_Mod_range_hashingENSD_20_Default_ranged_hashENSD_20_Prime_rehash_policyENSD_17_Hashtable_traitsILb1ELb0ELb1EEEED2Ev
	.section	.text._ZNSt6vectorINSt7__cxx1112basic_stringIcSt11char_traitsIcESaIcEEESaIS5_EE9push_backERKS5_,"axG",@progbits,_ZNSt6vectorINSt7__cxx1112basic_stringIcSt11char_traitsIcESaIcEEESaIS5_EE9push_backERKS5_,comdat
	.align 2
	.weak	_ZNSt6vectorINSt7__cxx1112basic_stringIcSt11char_traitsIcESaIcEEESaIS5_EE9push_backERKS5_
	.type	_ZNSt6vectorINSt7__cxx1112basic_stringIcSt11char_traitsIcESaIcEEESaIS5_EE9push_backERKS5_, @function
_ZNSt6vectorINSt7__cxx1112basic_stringIcSt11char_traitsIcESaIcEEESaIS5_EE9push_backERKS5_:
.LFB4120:
	.cfi_startproc
	endbr64
	pushq	%rbp
	.cfi_def_cfa_offset 16
	.cfi_offset 6, -16
	movq	%rsp, %rbp
	.cfi_def_cfa_register 6
	subq	$16, %rsp
	movq	%rdi, -8(%rbp)
	movq	%rsi, -16(%rbp)
	movq	-8(%rbp), %rax
	movq	8(%rax), %rdx
	movq	-8(%rbp), %rax
	movq	16(%rax), %rax
	cmpq	%rax, %rdx
	je	.L341
	movq	-8(%rbp), %rax
	movq	8(%rax), %rcx
	movq	-8(%rbp), %rax
	movq	-16(%rbp), %rdx
	movq	%rcx, %rsi
	movq	%rax, %rdi
	call	_ZNSt16allocator_traitsISaINSt7__cxx1112basic_stringIcSt11char_traitsIcESaIcEEEEE9constructIS5_JRKS5_EEEvRS6_PT_DpOT0_
	movq	-8(%rbp), %rax
	movq	8(%rax), %rax
	leaq	32(%rax), %rdx
	movq	-8(%rbp), %rax
	movq	%rdx, 8(%rax)
	jmp	.L343
.L341:
	movq	-8(%rbp), %rax
	movq	%rax, %rdi
	call	_ZNSt6vectorINSt7__cxx1112basic_stringIcSt11char_traitsIcESaIcEEESaIS5_EE3endEv
	movq	%rax, %rcx
	movq	-16(%rbp), %rdx
	movq	-8(%rbp), %rax
	movq	%rcx, %rsi
	movq	%rax, %rdi
	call	_ZNSt6vectorINSt7__cxx1112basic_stringIcSt11char_traitsIcESaIcEEESaIS5_EE17_M_realloc_insertIJRKS5_EEEvN9__gnu_cxx17__normal_iteratorIPS5_S7_EEDpOT_
.L343:
	nop
	leave
	.cfi_def_cfa 7, 8
	ret
	.cfi_endproc
.LFE4120:
	.size	_ZNSt6vectorINSt7__cxx1112basic_stringIcSt11char_traitsIcESaIcEEESaIS5_EE9push_backERKS5_, .-_ZNSt6vectorINSt7__cxx1112basic_stringIcSt11char_traitsIcESaIcEEESaIS5_EE9push_backERKS5_
	.section	.text._ZNSt6vectorINSt7__cxx1112basic_stringIcSt11char_traitsIcESaIcEEESaIS5_EE5beginEv,"axG",@progbits,_ZNSt6vectorINSt7__cxx1112basic_stringIcSt11char_traitsIcESaIcEEESaIS5_EE5beginEv,comdat
	.align 2
	.weak	_ZNSt6vectorINSt7__cxx1112basic_stringIcSt11char_traitsIcESaIcEEESaIS5_EE5beginEv
	.type	_ZNSt6vectorINSt7__cxx1112basic_stringIcSt11char_traitsIcESaIcEEESaIS5_EE5beginEv, @function
_ZNSt6vectorINSt7__cxx1112basic_stringIcSt11char_traitsIcESaIcEEESaIS5_EE5beginEv:
.LFB4122:
	.cfi_startproc
	endbr64
	pushq	%rbp
	.cfi_def_cfa_offset 16
	.cfi_offset 6, -16
	movq	%rsp, %rbp
	.cfi_def_cfa_register 6
	subq	$32, %rsp
	movq	%rdi, -24(%rbp)
	movq	%fs:40, %rax
	movq	%rax, -8(%rbp)
	xorl	%eax, %eax
	movq	-24(%rbp), %rdx
	leaq	-16(%rbp), %rax
	movq	%rdx, %rsi
	movq	%rax, %rdi
	call	_ZN9__gnu_cxx17__normal_iteratorIPNSt7__cxx1112basic_stringIcSt11char_traitsIcESaIcEEESt6vectorIS6_SaIS6_EEEC1ERKS7_
	movq	-16(%rbp), %rax
	movq	-8(%rbp), %rdx
	subq	%fs:40, %rdx
	je	.L346
	call	__stack_chk_fail@PLT
.L346:
	leave
	.cfi_def_cfa 7, 8
	ret
	.cfi_endproc
.LFE4122:
	.size	_ZNSt6vectorINSt7__cxx1112basic_stringIcSt11char_traitsIcESaIcEEESaIS5_EE5beginEv, .-_ZNSt6vectorINSt7__cxx1112basic_stringIcSt11char_traitsIcESaIcEEESaIS5_EE5beginEv
	.section	.text._ZNSt6vectorINSt7__cxx1112basic_stringIcSt11char_traitsIcESaIcEEESaIS5_EE3endEv,"axG",@progbits,_ZNSt6vectorINSt7__cxx1112basic_stringIcSt11char_traitsIcESaIcEEESaIS5_EE3endEv,comdat
	.align 2
	.weak	_ZNSt6vectorINSt7__cxx1112basic_stringIcSt11char_traitsIcESaIcEEESaIS5_EE3endEv
	.type	_ZNSt6vectorINSt7__cxx1112basic_stringIcSt11char_traitsIcESaIcEEESaIS5_EE3endEv, @function
_ZNSt6vectorINSt7__cxx1112basic_stringIcSt11char_traitsIcESaIcEEESaIS5_EE3endEv:
.LFB4123:
	.cfi_startproc
	endbr64
	pushq	%rbp
	.cfi_def_cfa_offset 16
	.cfi_offset 6, -16
	movq	%rsp, %rbp
	.cfi_def_cfa_register 6
	subq	$32, %rsp
	movq	%rdi, -24(%rbp)
	movq	%fs:40, %rax
	movq	%rax, -8(%rbp)
	xorl	%eax, %eax
	movq	-24(%rbp), %rax
	leaq	8(%rax), %rdx
	leaq	-16(%rbp), %rax
	movq	%rdx, %rsi
	movq	%rax, %rdi
	call	_ZN9__gnu_cxx17__normal_iteratorIPNSt7__cxx1112basic_stringIcSt11char_traitsIcESaIcEEESt6vectorIS6_SaIS6_EEEC1ERKS7_
	movq	-16(%rbp), %rax
	movq	-8(%rbp), %rdx
	subq	%fs:40, %rdx
	je	.L349
	call	__stack_chk_fail@PLT
.L349:
	leave
	.cfi_def_cfa 7, 8
	ret
	.cfi_endproc
.LFE4123:
	.size	_ZNSt6vectorINSt7__cxx1112basic_stringIcSt11char_traitsIcESaIcEEESaIS5_EE3endEv, .-_ZNSt6vectorINSt7__cxx1112basic_stringIcSt11char_traitsIcESaIcEEESaIS5_EE3endEv
	.section	.text._ZN9__gnu_cxxneIPNSt7__cxx1112basic_stringIcSt11char_traitsIcESaIcEEESt6vectorIS6_SaIS6_EEEEbRKNS_17__normal_iteratorIT_T0_EESG_,"axG",@progbits,_ZN9__gnu_cxxneIPNSt7__cxx1112basic_stringIcSt11char_traitsIcESaIcEEESt6vectorIS6_SaIS6_EEEEbRKNS_17__normal_iteratorIT_T0_EESG_,comdat
	.weak	_ZN9__gnu_cxxneIPNSt7__cxx1112basic_stringIcSt11char_traitsIcESaIcEEESt6vectorIS6_SaIS6_EEEEbRKNS_17__normal_iteratorIT_T0_EESG_
	.type	_ZN9__gnu_cxxneIPNSt7__cxx1112basic_stringIcSt11char_traitsIcESaIcEEESt6vectorIS6_SaIS6_EEEEbRKNS_17__normal_iteratorIT_T0_EESG_, @function
_ZN9__gnu_cxxneIPNSt7__cxx1112basic_stringIcSt11char_traitsIcESaIcEEESt6vectorIS6_SaIS6_EEEEbRKNS_17__normal_iteratorIT_T0_EESG_:
.LFB4124:
	.cfi_startproc
	endbr64
	pushq	%rbp
	.cfi_def_cfa_offset 16
	.cfi_offset 6, -16
	movq	%rsp, %rbp
	.cfi_def_cfa_register 6
	pushq	%rbx
	subq	$24, %rsp
	.cfi_offset 3, -24
	movq	%rdi, -24(%rbp)
	movq	%rsi, -32(%rbp)
	movq	-24(%rbp), %rax
	movq	%rax, %rdi
	call	_ZNK9__gnu_cxx17__normal_iteratorIPNSt7__cxx1112basic_stringIcSt11char_traitsIcESaIcEEESt6vectorIS6_SaIS6_EEE4baseEv
	movq	(%rax), %rbx
	movq	-32(%rbp), %rax
	movq	%rax, %rdi
	call	_ZNK9__gnu_cxx17__normal_iteratorIPNSt7__cxx1112basic_stringIcSt11char_traitsIcESaIcEEESt6vectorIS6_SaIS6_EEE4baseEv
	movq	(%rax), %rax
	cmpq	%rax, %rbx
	setne	%al
	movq	-8(%rbp), %rbx
	leave
	.cfi_def_cfa 7, 8
	ret
	.cfi_endproc
.LFE4124:
	.size	_ZN9__gnu_cxxneIPNSt7__cxx1112basic_stringIcSt11char_traitsIcESaIcEEESt6vectorIS6_SaIS6_EEEEbRKNS_17__normal_iteratorIT_T0_EESG_, .-_ZN9__gnu_cxxneIPNSt7__cxx1112basic_stringIcSt11char_traitsIcESaIcEEESt6vectorIS6_SaIS6_EEEEbRKNS_17__normal_iteratorIT_T0_EESG_
	.section	.text._ZN9__gnu_cxx17__normal_iteratorIPNSt7__cxx1112basic_stringIcSt11char_traitsIcESaIcEEESt6vectorIS6_SaIS6_EEEppEv,"axG",@progbits,_ZN9__gnu_cxx17__normal_iteratorIPNSt7__cxx1112basic_stringIcSt11char_traitsIcESaIcEEESt6vectorIS6_SaIS6_EEEppEv,comdat
	.align 2
	.weak	_ZN9__gnu_cxx17__normal_iteratorIPNSt7__cxx1112basic_stringIcSt11char_traitsIcESaIcEEESt6vectorIS6_SaIS6_EEEppEv
	.type	_ZN9__gnu_cxx17__normal_iteratorIPNSt7__cxx1112basic_stringIcSt11char_traitsIcESaIcEEESt6vectorIS6_SaIS6_EEEppEv, @function
_ZN9__gnu_cxx17__normal_iteratorIPNSt7__cxx1112basic_stringIcSt11char_traitsIcESaIcEEESt6vectorIS6_SaIS6_EEEppEv:
.LFB4125:
	.cfi_startproc
	endbr64
	pushq	%rbp
	.cfi_def_cfa_offset 16
	.cfi_offset 6, -16
	movq	%rsp, %rbp
	.cfi_def_cfa_register 6
	movq	%rdi, -8(%rbp)
	movq	-8(%rbp), %rax
	movq	(%rax), %rax
	leaq	32(%rax), %rdx
	movq	-8(%rbp), %rax
	movq	%rdx, (%rax)
	movq	-8(%rbp), %rax
	popq	%rbp
	.cfi_def_cfa 7, 8
	ret
	.cfi_endproc
.LFE4125:
	.size	_ZN9__gnu_cxx17__normal_iteratorIPNSt7__cxx1112basic_stringIcSt11char_traitsIcESaIcEEESt6vectorIS6_SaIS6_EEEppEv, .-_ZN9__gnu_cxx17__normal_iteratorIPNSt7__cxx1112basic_stringIcSt11char_traitsIcESaIcEEESt6vectorIS6_SaIS6_EEEppEv
	.section	.text._ZNK9__gnu_cxx17__normal_iteratorIPNSt7__cxx1112basic_stringIcSt11char_traitsIcESaIcEEESt6vectorIS6_SaIS6_EEEdeEv,"axG",@progbits,_ZNK9__gnu_cxx17__normal_iteratorIPNSt7__cxx1112basic_stringIcSt11char_traitsIcESaIcEEESt6vectorIS6_SaIS6_EEEdeEv,comdat
	.align 2
	.weak	_ZNK9__gnu_cxx17__normal_iteratorIPNSt7__cxx1112basic_stringIcSt11char_traitsIcESaIcEEESt6vectorIS6_SaIS6_EEEdeEv
	.type	_ZNK9__gnu_cxx17__normal_iteratorIPNSt7__cxx1112basic_stringIcSt11char_traitsIcESaIcEEESt6vectorIS6_SaIS6_EEEdeEv, @function
_ZNK9__gnu_cxx17__normal_iteratorIPNSt7__cxx1112basic_stringIcSt11char_traitsIcESaIcEEESt6vectorIS6_SaIS6_EEEdeEv:
.LFB4126:
	.cfi_startproc
	endbr64
	pushq	%rbp
	.cfi_def_cfa_offset 16
	.cfi_offset 6, -16
	movq	%rsp, %rbp
	.cfi_def_cfa_register 6
	movq	%rdi, -8(%rbp)
	movq	-8(%rbp), %rax
	movq	(%rax), %rax
	popq	%rbp
	.cfi_def_cfa 7, 8
	ret
	.cfi_endproc
.LFE4126:
	.size	_ZNK9__gnu_cxx17__normal_iteratorIPNSt7__cxx1112basic_stringIcSt11char_traitsIcESaIcEEESt6vectorIS6_SaIS6_EEEdeEv, .-_ZNK9__gnu_cxx17__normal_iteratorIPNSt7__cxx1112basic_stringIcSt11char_traitsIcESaIcEEESt6vectorIS6_SaIS6_EEEdeEv
	.section	.text._ZNSt13unordered_mapINSt7__cxx1112basic_stringIcSt11char_traitsIcESaIcEEESt6vectorIS5_SaIS5_EESt4hashIS5_ESt8equal_toIS5_ESaISt4pairIKS5_S8_EEEixERSE_,"axG",@progbits,_ZNSt13unordered_mapINSt7__cxx1112basic_stringIcSt11char_traitsIcESaIcEEESt6vectorIS5_SaIS5_EESt4hashIS5_ESt8equal_toIS5_ESaISt4pairIKS5_S8_EEEixERSE_,comdat
	.align 2
	.weak	_ZNSt13unordered_mapINSt7__cxx1112basic_stringIcSt11char_traitsIcESaIcEEESt6vectorIS5_SaIS5_EESt4hashIS5_ESt8equal_toIS5_ESaISt4pairIKS5_S8_EEEixERSE_
	.type	_ZNSt13unordered_mapINSt7__cxx1112basic_stringIcSt11char_traitsIcESaIcEEESt6vectorIS5_SaIS5_EESt4hashIS5_ESt8equal_toIS5_ESaISt4pairIKS5_S8_EEEixERSE_, @function
_ZNSt13unordered_mapINSt7__cxx1112basic_stringIcSt11char_traitsIcESaIcEEESt6vectorIS5_SaIS5_EESt4hashIS5_ESt8equal_toIS5_ESaISt4pairIKS5_S8_EEEixERSE_:
.LFB4127:
	.cfi_startproc
	endbr64
	pushq	%rbp
	.cfi_def_cfa_offset 16
	.cfi_offset 6, -16
	movq	%rsp, %rbp
	.cfi_def_cfa_register 6
	subq	$16, %rsp
	movq	%rdi, -8(%rbp)
	movq	%rsi, -16(%rbp)
	movq	-8(%rbp), %rax
	movq	-16(%rbp), %rdx
	movq	%rdx, %rsi
	movq	%rax, %rdi
	call	_ZNSt8__detail9_Map_baseINSt7__cxx1112basic_stringIcSt11char_traitsIcESaIcEEESt4pairIKS6_St6vectorIS6_SaIS6_EEESaISC_ENS_10_Select1stESt8equal_toIS6_ESt4hashIS6_ENS_18_Mod_range_hashingENS_20_Default_ranged_hashENS_20_Prime_rehash_policyENS_17_Hashtable_traitsILb1ELb0ELb1EEELb1EEixERS8_
	leave
	.cfi_def_cfa 7, 8
	ret
	.cfi_endproc
.LFE4127:
	.size	_ZNSt13unordered_mapINSt7__cxx1112basic_stringIcSt11char_traitsIcESaIcEEESt6vectorIS5_SaIS5_EESt4hashIS5_ESt8equal_toIS5_ESaISt4pairIKS5_S8_EEEixERSE_, .-_ZNSt13unordered_mapINSt7__cxx1112basic_stringIcSt11char_traitsIcESaIcEEESt6vectorIS5_SaIS5_EESt4hashIS5_ESt8equal_toIS5_ESaISt4pairIKS5_S8_EEEixERSE_
	.section	.text._ZNSt6vectorINSt7__cxx1112basic_stringIcSt11char_traitsIcESaIcEEESaIS5_EEC2ERKS7_,"axG",@progbits,_ZNSt6vectorINSt7__cxx1112basic_stringIcSt11char_traitsIcESaIcEEESaIS5_EEC5ERKS7_,comdat
	.align 2
	.weak	_ZNSt6vectorINSt7__cxx1112basic_stringIcSt11char_traitsIcESaIcEEESaIS5_EEC2ERKS7_
	.type	_ZNSt6vectorINSt7__cxx1112basic_stringIcSt11char_traitsIcESaIcEEESaIS5_EEC2ERKS7_, @function
_ZNSt6vectorINSt7__cxx1112basic_stringIcSt11char_traitsIcESaIcEEESaIS5_EEC2ERKS7_:
.LFB4129:
	.cfi_startproc
	.cfi_personality 0x9b,DW.ref.__gxx_personality_v0
	.cfi_lsda 0x1b,.LLSDA4129
	endbr64
	pushq	%rbp
	.cfi_def_cfa_offset 16
	.cfi_offset 6, -16
	movq	%rsp, %rbp
	.cfi_def_cfa_register 6
	pushq	%r13
	pushq	%r12
	pushq	%rbx
	subq	$40, %rsp
	.cfi_offset 13, -24
	.cfi_offset 12, -32
	.cfi_offset 3, -40
	movq	%rdi, -56(%rbp)
	movq	%rsi, -64(%rbp)
	movq	%fs:40, %rax
	movq	%rax, -40(%rbp)
	xorl	%eax, %eax
	movq	-56(%rbp), %rbx
	movq	-64(%rbp), %rax
	movq	%rax, %rdi
	call	_ZNKSt12_Vector_baseINSt7__cxx1112basic_stringIcSt11char_traitsIcESaIcEEESaIS5_EE19_M_get_Tp_allocatorEv
	movq	%rax, %rdx
	leaq	-41(%rbp), %rax
	movq	%rdx, %rsi
	movq	%rax, %rdi
.LEHB53:
	call	_ZN9__gnu_cxx14__alloc_traitsISaINSt7__cxx1112basic_stringIcSt11char_traitsIcESaIcEEEES6_E17_S_select_on_copyERKS7_
.LEHE53:
	movq	-64(%rbp), %rax
	movq	%rax, %rdi
	call	_ZNKSt6vectorINSt7__cxx1112basic_stringIcSt11char_traitsIcESaIcEEESaIS5_EE4sizeEv
	movq	%rax, %rcx
	leaq	-41(%rbp), %rax
	movq	%rax, %rdx
	movq	%rcx, %rsi
	movq	%rbx, %rdi
.LEHB54:
	call	_ZNSt12_Vector_baseINSt7__cxx1112basic_stringIcSt11char_traitsIcESaIcEEESaIS5_EEC2EmRKS6_
.LEHE54:
	leaq	-41(%rbp), %rax
	movq	%rax, %rdi
	call	_ZNSaINSt7__cxx1112basic_stringIcSt11char_traitsIcESaIcEEEED1Ev
	movq	-56(%rbp), %rax
	movq	%rax, %rdi
	call	_ZNSt12_Vector_baseINSt7__cxx1112basic_stringIcSt11char_traitsIcESaIcEEESaIS5_EE19_M_get_Tp_allocatorEv
	movq	%rax, %r13
	movq	-56(%rbp), %rax
	movq	(%rax), %rbx
	movq	-64(%rbp), %rax
	movq	%rax, %rdi
	call	_ZNKSt6vectorINSt7__cxx1112basic_stringIcSt11char_traitsIcESaIcEEESaIS5_EE3endEv
	movq	%rax, %r12
	movq	-64(%rbp), %rax
	movq	%rax, %rdi
	call	_ZNKSt6vectorINSt7__cxx1112basic_stringIcSt11char_traitsIcESaIcEEESaIS5_EE5beginEv
	movq	%r13, %rcx
	movq	%rbx, %rdx
	movq	%r12, %rsi
	movq	%rax, %rdi
.LEHB55:
	call	_ZSt22__uninitialized_copy_aIN9__gnu_cxx17__normal_iteratorIPKNSt7__cxx1112basic_stringIcSt11char_traitsIcESaIcEEESt6vectorIS7_SaIS7_EEEEPS7_S7_ET0_T_SG_SF_RSaIT1_E
.LEHE55:
	movq	-56(%rbp), %rdx
	movq	%rax, 8(%rdx)
	nop
	movq	-40(%rbp), %rax
	subq	%fs:40, %rax
	je	.L361
	jmp	.L364
.L362:
	endbr64
	movq	%rax, %rbx
	leaq	-41(%rbp), %rax
	movq	%rax, %rdi
	call	_ZNSaINSt7__cxx1112basic_stringIcSt11char_traitsIcESaIcEEEED1Ev
	movq	%rbx, %rax
	movq	%rax, %rdi
.LEHB56:
	call	_Unwind_Resume@PLT
.L363:
	endbr64
	movq	%rax, %rbx
	movq	-56(%rbp), %rax
	movq	%rax, %rdi
	call	_ZNSt12_Vector_baseINSt7__cxx1112basic_stringIcSt11char_traitsIcESaIcEEESaIS5_EED2Ev
	movq	%rbx, %rax
	movq	%rax, %rdi
	call	_Unwind_Resume@PLT
.LEHE56:
.L364:
	call	__stack_chk_fail@PLT
.L361:
	addq	$40, %rsp
	popq	%rbx
	popq	%r12
	popq	%r13
	popq	%rbp
	.cfi_def_cfa 7, 8
	ret
	.cfi_endproc
.LFE4129:
	.section	.gcc_except_table
.LLSDA4129:
	.byte	0xff
	.byte	0xff
	.byte	0x1
	.uleb128 .LLSDACSE4129-.LLSDACSB4129
.LLSDACSB4129:
	.uleb128 .LEHB53-.LFB4129
	.uleb128 .LEHE53-.LEHB53
	.uleb128 0
	.uleb128 0
	.uleb128 .LEHB54-.LFB4129
	.uleb128 .LEHE54-.LEHB54
	.uleb128 .L362-.LFB4129
	.uleb128 0
	.uleb128 .LEHB55-.LFB4129
	.uleb128 .LEHE55-.LEHB55
	.uleb128 .L363-.LFB4129
	.uleb128 0
	.uleb128 .LEHB56-.LFB4129
	.uleb128 .LEHE56-.LEHB56
	.uleb128 0
	.uleb128 0
.LLSDACSE4129:
